

Microchip MPLAB XC8 Assembler V2.32 build 20210201212658 
                                                                                               Thu Feb 17 04:52:15 2022

Microchip MPLAB XC8 C Compiler v2.32 (Free license) build 20210201212658 Og1 
     1                           	processor	16F887
     2                           	pagewidth 120
     3                           	opt	flic
     4                           	psect	idataBANK0,global,class=CODE,delta=2,noexec
     5                           	psect	idataBANK1,global,class=CODE,delta=2,noexec
     6                           	psect	cinit,global,class=CODE,merge=1,delta=2
     7                           	psect	bssBANK0,global,class=BANK0,space=1,delta=1,noexec
     8                           	psect	dataBANK0,global,class=BANK0,space=1,delta=1,noexec
     9                           	psect	dataBANK1,global,class=BANK1,space=1,delta=1,noexec
    10                           	psect	inittext,global,class=CODE,delta=2
    11                           	psect	clrtext,global,class=CODE,delta=2
    12                           	psect	cstackCOMMON,global,class=COMMON,space=1,delta=1,noexec
    13                           	psect	cstackBANK0,global,class=BANK0,space=1,delta=1,noexec
    14                           	psect	maintext,global,class=CODE,split=1,delta=2
    15                           	psect	text1,local,class=CODE,merge=1,delta=2
    16                           	psect	text2,local,class=CODE,merge=1,delta=2
    17                           	psect	text3,local,class=CODE,merge=1,delta=2
    18                           	psect	text4,local,class=CODE,merge=1,delta=2
    19                           	psect	text5,local,class=CODE,merge=1,delta=2
    20                           	psect	text6,local,class=CODE,merge=1,delta=2
    21                           	psect	text7,local,class=CODE,merge=1,delta=2
    22                           	psect	text8,local,class=CODE,merge=1,delta=2,group=1
    23                           	psect	text9,local,class=CODE,merge=1,delta=2
    24                           	psect	text10,local,class=CODE,merge=1,delta=2
    25                           	psect	text11,local,class=CODE,merge=1,delta=2
    26                           	psect	text12,local,class=CODE,merge=1,delta=2
    27                           	psect	text13,local,class=CODE,merge=1,delta=2,group=2
    28                           	psect	text14,local,class=CODE,merge=1,delta=2
    29                           	psect	text15,local,class=CODE,merge=1,delta=2
    30                           	psect	text16,local,class=CODE,merge=1,delta=2,group=1
    31                           	psect	text17,local,class=CODE,merge=1,delta=2,group=1
    32                           	psect	text18,local,class=CODE,merge=1,delta=2,group=1
    33                           	psect	text19,local,class=CODE,merge=1,delta=2,group=1
    34                           	psect	text20,local,class=CODE,merge=1,delta=2
    35                           	psect	text21,local,class=CODE,merge=1,delta=2
    36                           	psect	text22,local,class=CODE,merge=1,delta=2
    37                           	psect	text23,local,class=CODE,merge=1,delta=2
    38                           	psect	text24,local,class=CODE,merge=1,delta=2
    39                           	psect	intentry,global,class=CODE,delta=2
    40                           	psect	config,global,abs,ovrld,class=CONFIG,space=4,delta=2,noexec
    41                           	dabs	1,0x7E,2
    42  0000                     
    43                           ; Version 2.20
    44                           ; Generated 12/02/2020 GMT
    45                           ; 
    46                           ; Copyright © 2020, Microchip Technology Inc. and its subsidiaries ("Microchip")
    47                           ; All rights reserved.
    48                           ; 
    49                           ; This software is developed by Microchip Technology Inc. and its subsidiaries ("Microch
      +                          ip").
    50                           ; 
    51                           ; Redistribution and use in source and binary forms, with or without modification, are
    52                           ; permitted provided that the following conditions are met:
    53                           ; 
    54                           ;     1. Redistributions of source code must retain the above copyright notice, this lis
      +                          t of
    55                           ;        conditions and the following disclaimer.
    56                           ; 
    57                           ;     2. Redistributions in binary form must reproduce the above copyright notice, this 
      +                          list
    58                           ;        of conditions and the following disclaimer in the documentation and/or other
    59                           ;        materials provided with the distribution.
    60                           ; 
    61                           ;     3. Microchip's name may not be used to endorse or promote products derived from th
      +                          is
    62                           ;        software without specific prior written permission.
    63                           ; 
    64                           ; THIS SOFTWARE IS PROVIDED BY MICROCHIP "AS IS" AND ANY EXPRESS OR IMPLIED WARRANTIES,
    65                           ; INCLUDING, BUT NOT LIMITED TO, THE IMPLIED WARRANTIES OF MERCHANTABILITY AND FITNESS F
      +                          OR
    66                           ; PURPOSE ARE DISCLAIMED.  IN NO EVENT SHALL MICROCHIP BE LIABLE FOR ANY DIRECT, INDIREC
      +                          T,
    67                           ; INCIDENTAL, SPECIAL, EXEMPLARY, OR CONSEQUENTIAL DAMAGES (INCLUDING BUT NOT LIMITED TO
    68                           ; PROCUREMENT OF SUBSTITUTE GOODS OR SERVICES; LOSS OF USE, DATA OR PROFITS; OR BUSINESS
    69                           ; INTERRUPTION) HOWSOEVER CAUSED AND ON ANY THEORY OF LIABILITY, WHETHER IN CONTRACT, ST
      +                          RICT
    70                           ; LIABILITY, OR TORT (INCLUDING NEGLIGENCE OR OTHERWISE) ARISING IN ANY WAY OUT OF THE U
      +                          SE OF
    71                           ; THIS SOFTWARE, EVEN IF ADVISED OF THE POSSIBILITY OF SUCH DAMAGE.
    72                           ; 
    73                           ; 
    74                           ; Code-generator required, PIC16F887 Definitions
    75                           ; 
    76                           ; SFR Addresses
    77  0000                     	;# 
    78  0001                     	;# 
    79  0002                     	;# 
    80  0003                     	;# 
    81  0004                     	;# 
    82  0005                     	;# 
    83  0006                     	;# 
    84  0007                     	;# 
    85  0008                     	;# 
    86  0009                     	;# 
    87  000A                     	;# 
    88  000B                     	;# 
    89  000C                     	;# 
    90  000D                     	;# 
    91  000E                     	;# 
    92  000E                     	;# 
    93  000F                     	;# 
    94  0010                     	;# 
    95  0011                     	;# 
    96  0012                     	;# 
    97  0013                     	;# 
    98  0014                     	;# 
    99  0015                     	;# 
   100  0015                     	;# 
   101  0016                     	;# 
   102  0017                     	;# 
   103  0018                     	;# 
   104  0019                     	;# 
   105  001A                     	;# 
   106  001B                     	;# 
   107  001B                     	;# 
   108  001C                     	;# 
   109  001D                     	;# 
   110  001E                     	;# 
   111  001F                     	;# 
   112  0081                     	;# 
   113  0085                     	;# 
   114  0086                     	;# 
   115  0087                     	;# 
   116  0088                     	;# 
   117  0089                     	;# 
   118  008C                     	;# 
   119  008D                     	;# 
   120  008E                     	;# 
   121  008F                     	;# 
   122  0090                     	;# 
   123  0091                     	;# 
   124  0092                     	;# 
   125  0093                     	;# 
   126  0093                     	;# 
   127  0093                     	;# 
   128  0094                     	;# 
   129  0095                     	;# 
   130  0096                     	;# 
   131  0097                     	;# 
   132  0098                     	;# 
   133  0099                     	;# 
   134  009A                     	;# 
   135  009B                     	;# 
   136  009C                     	;# 
   137  009D                     	;# 
   138  009E                     	;# 
   139  009F                     	;# 
   140  0105                     	;# 
   141  0107                     	;# 
   142  0108                     	;# 
   143  0109                     	;# 
   144  010C                     	;# 
   145  010C                     	;# 
   146  010D                     	;# 
   147  010E                     	;# 
   148  010F                     	;# 
   149  0185                     	;# 
   150  0187                     	;# 
   151  0188                     	;# 
   152  0189                     	;# 
   153  018C                     	;# 
   154  018D                     	;# 
   155  0000                     	;# 
   156  0001                     	;# 
   157  0002                     	;# 
   158  0003                     	;# 
   159  0004                     	;# 
   160  0005                     	;# 
   161  0006                     	;# 
   162  0007                     	;# 
   163  0008                     	;# 
   164  0009                     	;# 
   165  000A                     	;# 
   166  000B                     	;# 
   167  000C                     	;# 
   168  000D                     	;# 
   169  000E                     	;# 
   170  000E                     	;# 
   171  000F                     	;# 
   172  0010                     	;# 
   173  0011                     	;# 
   174  0012                     	;# 
   175  0013                     	;# 
   176  0014                     	;# 
   177  0015                     	;# 
   178  0015                     	;# 
   179  0016                     	;# 
   180  0017                     	;# 
   181  0018                     	;# 
   182  0019                     	;# 
   183  001A                     	;# 
   184  001B                     	;# 
   185  001B                     	;# 
   186  001C                     	;# 
   187  001D                     	;# 
   188  001E                     	;# 
   189  001F                     	;# 
   190  0081                     	;# 
   191  0085                     	;# 
   192  0086                     	;# 
   193  0087                     	;# 
   194  0088                     	;# 
   195  0089                     	;# 
   196  008C                     	;# 
   197  008D                     	;# 
   198  008E                     	;# 
   199  008F                     	;# 
   200  0090                     	;# 
   201  0091                     	;# 
   202  0092                     	;# 
   203  0093                     	;# 
   204  0093                     	;# 
   205  0093                     	;# 
   206  0094                     	;# 
   207  0095                     	;# 
   208  0096                     	;# 
   209  0097                     	;# 
   210  0098                     	;# 
   211  0099                     	;# 
   212  009A                     	;# 
   213  009B                     	;# 
   214  009C                     	;# 
   215  009D                     	;# 
   216  009E                     	;# 
   217  009F                     	;# 
   218  0105                     	;# 
   219  0107                     	;# 
   220  0108                     	;# 
   221  0109                     	;# 
   222  010C                     	;# 
   223  010C                     	;# 
   224  010D                     	;# 
   225  010E                     	;# 
   226  010F                     	;# 
   227  0185                     	;# 
   228  0187                     	;# 
   229  0188                     	;# 
   230  0189                     	;# 
   231  018C                     	;# 
   232  018D                     	;# 
   233  0000                     	;# 
   234  0001                     	;# 
   235  0002                     	;# 
   236  0003                     	;# 
   237  0004                     	;# 
   238  0005                     	;# 
   239  0006                     	;# 
   240  0007                     	;# 
   241  0008                     	;# 
   242  0009                     	;# 
   243  000A                     	;# 
   244  000B                     	;# 
   245  000C                     	;# 
   246  000D                     	;# 
   247  000E                     	;# 
   248  000E                     	;# 
   249  000F                     	;# 
   250  0010                     	;# 
   251  0011                     	;# 
   252  0012                     	;# 
   253  0013                     	;# 
   254  0014                     	;# 
   255  0015                     	;# 
   256  0015                     	;# 
   257  0016                     	;# 
   258  0017                     	;# 
   259  0018                     	;# 
   260  0019                     	;# 
   261  001A                     	;# 
   262  001B                     	;# 
   263  001B                     	;# 
   264  001C                     	;# 
   265  001D                     	;# 
   266  001E                     	;# 
   267  001F                     	;# 
   268  0081                     	;# 
   269  0085                     	;# 
   270  0086                     	;# 
   271  0087                     	;# 
   272  0088                     	;# 
   273  0089                     	;# 
   274  008C                     	;# 
   275  008D                     	;# 
   276  008E                     	;# 
   277  008F                     	;# 
   278  0090                     	;# 
   279  0091                     	;# 
   280  0092                     	;# 
   281  0093                     	;# 
   282  0093                     	;# 
   283  0093                     	;# 
   284  0094                     	;# 
   285  0095                     	;# 
   286  0096                     	;# 
   287  0097                     	;# 
   288  0098                     	;# 
   289  0099                     	;# 
   290  009A                     	;# 
   291  009B                     	;# 
   292  009C                     	;# 
   293  009D                     	;# 
   294  009E                     	;# 
   295  009F                     	;# 
   296  0105                     	;# 
   297  0107                     	;# 
   298  0108                     	;# 
   299  0109                     	;# 
   300  010C                     	;# 
   301  010C                     	;# 
   302  010D                     	;# 
   303  010E                     	;# 
   304  010F                     	;# 
   305  0185                     	;# 
   306  0187                     	;# 
   307  0188                     	;# 
   308  0189                     	;# 
   309  018C                     	;# 
   310  018D                     	;# 
   311  0000                     	;# 
   312  0001                     	;# 
   313  0002                     	;# 
   314  0003                     	;# 
   315  0004                     	;# 
   316  0005                     	;# 
   317  0006                     	;# 
   318  0007                     	;# 
   319  0008                     	;# 
   320  0009                     	;# 
   321  000A                     	;# 
   322  000B                     	;# 
   323  000C                     	;# 
   324  000D                     	;# 
   325  000E                     	;# 
   326  000E                     	;# 
   327  000F                     	;# 
   328  0010                     	;# 
   329  0011                     	;# 
   330  0012                     	;# 
   331  0013                     	;# 
   332  0014                     	;# 
   333  0015                     	;# 
   334  0015                     	;# 
   335  0016                     	;# 
   336  0017                     	;# 
   337  0018                     	;# 
   338  0019                     	;# 
   339  001A                     	;# 
   340  001B                     	;# 
   341  001B                     	;# 
   342  001C                     	;# 
   343  001D                     	;# 
   344  001E                     	;# 
   345  001F                     	;# 
   346  0081                     	;# 
   347  0085                     	;# 
   348  0086                     	;# 
   349  0087                     	;# 
   350  0088                     	;# 
   351  0089                     	;# 
   352  008C                     	;# 
   353  008D                     	;# 
   354  008E                     	;# 
   355  008F                     	;# 
   356  0090                     	;# 
   357  0091                     	;# 
   358  0092                     	;# 
   359  0093                     	;# 
   360  0093                     	;# 
   361  0093                     	;# 
   362  0094                     	;# 
   363  0095                     	;# 
   364  0096                     	;# 
   365  0097                     	;# 
   366  0098                     	;# 
   367  0099                     	;# 
   368  009A                     	;# 
   369  009B                     	;# 
   370  009C                     	;# 
   371  009D                     	;# 
   372  009E                     	;# 
   373  009F                     	;# 
   374  0105                     	;# 
   375  0107                     	;# 
   376  0108                     	;# 
   377  0109                     	;# 
   378  010C                     	;# 
   379  010C                     	;# 
   380  010D                     	;# 
   381  010E                     	;# 
   382  010F                     	;# 
   383  0185                     	;# 
   384  0187                     	;# 
   385  0188                     	;# 
   386  0189                     	;# 
   387  018C                     	;# 
   388  018D                     	;# 
   389  0000                     	;# 
   390  0001                     	;# 
   391  0002                     	;# 
   392  0003                     	;# 
   393  0004                     	;# 
   394  0005                     	;# 
   395  0006                     	;# 
   396  0007                     	;# 
   397  0008                     	;# 
   398  0009                     	;# 
   399  000A                     	;# 
   400  000B                     	;# 
   401  000C                     	;# 
   402  000D                     	;# 
   403  000E                     	;# 
   404  000E                     	;# 
   405  000F                     	;# 
   406  0010                     	;# 
   407  0011                     	;# 
   408  0012                     	;# 
   409  0013                     	;# 
   410  0014                     	;# 
   411  0015                     	;# 
   412  0015                     	;# 
   413  0016                     	;# 
   414  0017                     	;# 
   415  0018                     	;# 
   416  0019                     	;# 
   417  001A                     	;# 
   418  001B                     	;# 
   419  001B                     	;# 
   420  001C                     	;# 
   421  001D                     	;# 
   422  001E                     	;# 
   423  001F                     	;# 
   424  0081                     	;# 
   425  0085                     	;# 
   426  0086                     	;# 
   427  0087                     	;# 
   428  0088                     	;# 
   429  0089                     	;# 
   430  008C                     	;# 
   431  008D                     	;# 
   432  008E                     	;# 
   433  008F                     	;# 
   434  0090                     	;# 
   435  0091                     	;# 
   436  0092                     	;# 
   437  0093                     	;# 
   438  0093                     	;# 
   439  0093                     	;# 
   440  0094                     	;# 
   441  0095                     	;# 
   442  0096                     	;# 
   443  0097                     	;# 
   444  0098                     	;# 
   445  0099                     	;# 
   446  009A                     	;# 
   447  009B                     	;# 
   448  009C                     	;# 
   449  009D                     	;# 
   450  009E                     	;# 
   451  009F                     	;# 
   452  0105                     	;# 
   453  0107                     	;# 
   454  0108                     	;# 
   455  0109                     	;# 
   456  010C                     	;# 
   457  010C                     	;# 
   458  010D                     	;# 
   459  010E                     	;# 
   460  010F                     	;# 
   461  0185                     	;# 
   462  0187                     	;# 
   463  0188                     	;# 
   464  0189                     	;# 
   465  018C                     	;# 
   466  018D                     	;# 
   467                           
   468                           	psect	idataBANK0
   469  06A2                     __pidataBANK0:
   470                           
   471                           ;initializer for _txt_pot
   472  06A2  3453               	retlw	83
   473  06A3  3431               	retlw	49
   474  06A4  343A               	retlw	58
   475  06A5  3420               	retlw	32
   476  06A6  3400               	retlw	0
   477                           
   478                           	psect	idataBANK1
   479  0590                     __pidataBANK1:
   480                           
   481                           ;initializer for w_Titulos@F1403
   482  0590  3453               	retlw	83
   483  0591  3431               	retlw	49
   484  0592  343A               	retlw	58
   485  0593  3420               	retlw	32
   486  0594  3420               	retlw	32
   487  0595  3453               	retlw	83
   488  0596  3432               	retlw	50
   489  0597  343A               	retlw	58
   490  0598  3420               	retlw	32
   491  0599  3420               	retlw	32
   492  059A  3420               	retlw	32
   493  059B  3453               	retlw	83
   494  059C  3433               	retlw	51
   495  059D  343A               	retlw	58
   496  059E  3420               	retlw	32
   497  059F  3400               	retlw	0
   498                           
   499                           ;initializer for _txt_temp
   500  05A0  3420               	retlw	32
   501  05A1  3420               	retlw	32
   502  05A2  3420               	retlw	32
   503  05A3  3420               	retlw	32
   504  05A4  3453               	retlw	83
   505  05A5  3433               	retlw	51
   506  05A6  343A               	retlw	58
   507  05A7  3420               	retlw	32
   508  05A8  3400               	retlw	0
   509                           
   510                           ;initializer for _txt_cont
   511  05A9  3420               	retlw	32
   512  05AA  3420               	retlw	32
   513  05AB  3420               	retlw	32
   514  05AC  3420               	retlw	32
   515  05AD  3453               	retlw	83
   516  05AE  3432               	retlw	50
   517  05AF  343A               	retlw	58
   518  05B0  3420               	retlw	32
   519  05B1  3400               	retlw	0
   520  0019                     _TXREG	set	25
   521  0018                     _RCSTAbits	set	24
   522  0007                     _PORTCbits	set	7
   523  0014                     _SSPCONbits	set	20
   524  000B                     _INTCONbits	set	11
   525  0010                     _T1CONbits	set	16
   526  0008                     _PORTD	set	8
   527  0007                     _PORTC	set	7
   528  0006                     _PORTB	set	6
   529  0005                     _PORTA	set	5
   530  0013                     _SSPBUF	set	19
   531  0006                     _PORTBbits	set	6
   532  000E                     _TMR1L	set	14
   533  000F                     _TMR1H	set	15
   534  000C                     _PIR1bits	set	12
   535  0098                     _TXSTAbits	set	152
   536  0099                     _SPBRG	set	153
   537  009A                     _SPBRGH	set	154
   538  0094                     _SSPSTATbits	set	148
   539  008C                     _PIE1bits	set	140
   540  008F                     _OSCCONbits	set	143
   541  0088                     _TRISD	set	136
   542  0087                     _TRISCbits	set	135
   543  0087                     _TRISC	set	135
   544  0086                     _TRISB	set	134
   545  0085                     _TRISA	set	133
   546  0187                     _BAUDCTLbits	set	391
   547  0189                     _ANSELH	set	393
   548  0188                     _ANSEL	set	392
   549                           
   550                           	psect	cinit
   551  000F                     start_initialization:	
   552                           ; #config settings
   553                           
   554  000F                     __initialization:
   555                           
   556                           ; Initialize objects allocated to BANK1
   557  000F  1383               	bcf	3,7	;select IRP bank0
   558  0010  30C2               	movlw	low (__pdataBANK1+34)
   559  0011  00FD               	movwf	btemp+-1
   560  0012  3005               	movlw	high __pidataBANK1
   561  0013  00FE               	movwf	btemp
   562  0014  3090               	movlw	low __pidataBANK1
   563  0015  00FF               	movwf	btemp+1
   564  0016  30A0               	movlw	low __pdataBANK1
   565  0017  0084               	movwf	4
   566  0018  120A  118A  261A  120A  118A  	fcall	init_ram0
   567                           
   568                           ; Initialize objects allocated to BANK0
   569  001D  306E               	movlw	low (__pdataBANK0+5)
   570  001E  00FD               	movwf	btemp+-1
   571  001F  3006               	movlw	high __pidataBANK0
   572  0020  00FE               	movwf	btemp
   573  0021  30A2               	movlw	low __pidataBANK0
   574  0022  00FF               	movwf	btemp+1
   575  0023  3069               	movlw	low __pdataBANK0
   576  0024  0084               	movwf	4
   577  0025  120A  118A  261A  120A  118A  	fcall	init_ram0
   578                           
   579                           ; Clear objects allocated to BANK0
   580  002A  3048               	movlw	low __pbssBANK0
   581  002B  0084               	movwf	4
   582  002C  3069               	movlw	low (__pbssBANK0+33)
   583  002D  120A  118A  2693  120A  118A  	fcall	clear_ram0
   584  0032                     end_of_initialization:	
   585                           ;End of C runtime variable initialization code
   586                           
   587  0032                     __end_of__initialization:
   588  0032  0183               	clrf	3
   589  0033  120A  118A  2836   	ljmp	_main	;jump to C main() function
   590                           
   591                           	psect	bssBANK0
   592  0048                     __pbssBANK0:
   593  0048                     main@F1423:
   594  0048                     	ds	5
   595  004D                     main@F1427:
   596  004D                     	ds	4
   597  0051                     main@F1425:
   598  0051                     	ds	4
   599  0055                     _bandera_UART:
   600  0055                     	ds	1
   601  0056                     _enviar_nada:
   602  0056                     	ds	1
   603  0057                     _temp:
   604  0057                     	ds	6
   605  005D                     _cont:
   606  005D                     	ds	6
   607  0063                     _pot:
   608  0063                     	ds	6
   609                           
   610                           	psect	dataBANK0
   611  0069                     __pdataBANK0:
   612  0069                     _txt_pot:
   613  0069                     	ds	5
   614                           
   615                           	psect	dataBANK1
   616  00A0                     __pdataBANK1:
   617  00A0                     w_Titulos@F1403:
   618  00A0                     	ds	16
   619  00B0                     _txt_temp:
   620  00B0                     	ds	9
   621  00B9                     _txt_cont:
   622  00B9                     	ds	9
   623                           
   624                           	psect	inittext
   625  0616                     init_fetch0:	
   626                           ;	Called with low address in FSR and high address in W
   627                           
   628  0616  087E               	movf	btemp,w
   629  0617  008A               	movwf	10
   630  0618  087F               	movf	btemp+1,w
   631  0619  0082               	movwf	2
   632  061A                     init_ram0:	
   633                           ;Called with:
   634                           ;	high address of idata address in btemp 
   635                           ;	low address of idata address in btemp+1 
   636                           ;	low address of data in FSR
   637                           ;	high address + 1 of data in btemp-1
   638                           
   639  061A  120A  118A  2616  120A  118A  	fcall	init_fetch0
   640  061F  0080               	movwf	0
   641  0620  0A84               	incf	4,f
   642  0621  0804               	movf	4,w
   643  0622  067D               	xorwf	btemp+-1,w
   644  0623  1903               	btfsc	3,2
   645  0624  3400               	retlw	0
   646  0625  0AFF               	incf	btemp+1,f
   647  0626  1903               	btfsc	3,2
   648  0627  0AFE               	incf	btemp,f
   649  0628  2E1A               	goto	init_ram0
   650                           
   651                           	psect	clrtext
   652  0693                     clear_ram0:	
   653                           ;	Called with FSR containing the base address, and
   654                           ;	W with the last address+1
   655                           
   656  0693  0064               	clrwdt	;clear the watchdog before getting into this loop
   657  0694                     clrloop0:
   658  0694  0180               	clrf	0	;clear RAM location pointed to by FSR
   659  0695  0A84               	incf	4,f	;increment pointer
   660  0696  0604               	xorwf	4,w	;XOR with final address
   661  0697  1903               	btfsc	3,2	;have we reached the end yet?
   662  0698  3400               	retlw	0	;all done for this memory range, return
   663  0699  0604               	xorwf	4,w	;XOR again to restore value
   664  069A  2E94               	goto	clrloop0	;do the next byte
   665                           
   666                           	psect	cstackCOMMON
   667  0070                     __pcstackCOMMON:
   668  0070                     ?_config_reloj:
   669  0070                     ?_config_io:	
   670                           ; 1 bytes @ 0x0
   671                           
   672  0070                     ?_spi_Master:	
   673                           ; 1 bytes @ 0x0
   674                           
   675  0070                     ?_config_tx:	
   676                           ; 1 bytes @ 0x0
   677                           
   678  0070                     ?_config_timer1:	
   679                           ; 1 bytes @ 0x0
   680                           
   681  0070                     ?_ini_LCD:	
   682                           ; 1 bytes @ 0x0
   683                           
   684  0070                     ?_w_Titulos:	
   685                           ; 1 bytes @ 0x0
   686                           
   687  0070                     ?_spi_Read:	
   688                           ; 1 bytes @ 0x0
   689                           
   690  0070                     ?_w_Char:	
   691                           ; 1 bytes @ 0x0
   692                           
   693  0070                     ?_enviar_string:	
   694                           ; 1 bytes @ 0x0
   695                           
   696  0070                     ?_enviar_char:	
   697                           ; 1 bytes @ 0x0
   698                           
   699  0070                     ?_w_Instruction:	
   700                           ; 1 bytes @ 0x0
   701                           
   702  0070                     ?_isr:	
   703                           ; 1 bytes @ 0x0
   704                           
   705  0070                     ??_isr:	
   706                           ; 1 bytes @ 0x0
   707                           
   708  0070                     ?_main:	
   709                           ; 1 bytes @ 0x0
   710                           
   711  0070                     ?_pulse_E:	
   712                           ; 1 bytes @ 0x0
   713                           
   714  0070                     ?_w_String:	
   715                           ; 1 bytes @ 0x0
   716                           
   717                           
   718                           ; 1 bytes @ 0x0
   719  0070                     	ds	3
   720  0073                     ??_config_reloj:
   721  0073                     ??_config_io:	
   722                           ; 1 bytes @ 0x3
   723                           
   724  0073                     ??_spi_Master:	
   725                           ; 1 bytes @ 0x3
   726                           
   727  0073                     ??_config_tx:	
   728                           ; 1 bytes @ 0x3
   729                           
   730  0073                     ??_config_timer1:	
   731                           ; 1 bytes @ 0x3
   732                           
   733  0073                     ??_spi_Read:	
   734                           ; 1 bytes @ 0x3
   735                           
   736  0073                     ??_enviar_char:	
   737                           ; 1 bytes @ 0x3
   738                           
   739  0073                     ??_pulse_E:	
   740                           ; 1 bytes @ 0x3
   741                           
   742  0073                     ?_strlen:	
   743                           ; 1 bytes @ 0x3
   744                           
   745  0073                     ?___wmul:	
   746                           ; 2 bytes @ 0x3
   747                           
   748  0073                     ?___awmod:	
   749                           ; 2 bytes @ 0x3
   750                           
   751  0073                     ?___lwdiv:	
   752                           ; 2 bytes @ 0x3
   753                           
   754  0073                     ?___lwmod:	
   755                           ; 2 bytes @ 0x3
   756                           
   757  0073                     ___wmul@multiplier:	
   758                           ; 2 bytes @ 0x3
   759                           
   760  0073                     ___awmod@divisor:	
   761                           ; 2 bytes @ 0x3
   762                           
   763  0073                     ___lwdiv@divisor:	
   764                           ; 2 bytes @ 0x3
   765                           
   766  0073                     ___lwmod@divisor:	
   767                           ; 2 bytes @ 0x3
   768                           
   769                           
   770                           ; 2 bytes @ 0x3
   771  0073                     	ds	1
   772  0074                     ??_w_Char:
   773  0074                     ??_w_Instruction:	
   774                           ; 1 bytes @ 0x4
   775                           
   776  0074                     w_Instruction@instruction:	
   777                           ; 1 bytes @ 0x4
   778                           
   779  0074                     w_Char@data:	
   780                           ; 1 bytes @ 0x4
   781                           
   782  0074                     enviar_char@dato:	
   783                           ; 1 bytes @ 0x4
   784                           
   785                           
   786                           ; 1 bytes @ 0x4
   787  0074                     	ds	1
   788  0075                     ??_ini_LCD:
   789  0075                     ?_set_Cursor:	
   790                           ; 1 bytes @ 0x5
   791                           
   792  0075                     ??_strlen:	
   793                           ; 1 bytes @ 0x5
   794                           
   795  0075                     set_Cursor@pos:	
   796                           ; 1 bytes @ 0x5
   797                           
   798  0075                     ___wmul@multiplicand:	
   799                           ; 1 bytes @ 0x5
   800                           
   801  0075                     ___awmod@dividend:	
   802                           ; 2 bytes @ 0x5
   803                           
   804  0075                     ___lwdiv@dividend:	
   805                           ; 2 bytes @ 0x5
   806                           
   807  0075                     ___lwmod@dividend:	
   808                           ; 2 bytes @ 0x5
   809                           
   810                           
   811                           ; 2 bytes @ 0x5
   812  0075                     	ds	1
   813  0076                     ??_set_Cursor:
   814  0076                     strlen@cp:	
   815                           ; 1 bytes @ 0x6
   816                           
   817                           
   818                           ; 1 bytes @ 0x6
   819  0076                     	ds	1
   820  0077                     ??___wmul:
   821  0077                     ??___awmod:	
   822                           ; 1 bytes @ 0x7
   823                           
   824  0077                     ??___lwdiv:	
   825                           ; 1 bytes @ 0x7
   826                           
   827  0077                     ??___lwmod:	
   828                           ; 1 bytes @ 0x7
   829                           
   830  0077                     strlen@s:	
   831                           ; 1 bytes @ 0x7
   832                           
   833  0077                     ___wmul@product:	
   834                           ; 1 bytes @ 0x7
   835                           
   836                           
   837                           ; 2 bytes @ 0x7
   838  0077                     	ds	1
   839  0078                     ??_enviar_string:
   840  0078                     ??_w_String:	
   841                           ; 1 bytes @ 0x8
   842                           
   843  0078                     set_Cursor@line:	
   844                           ; 1 bytes @ 0x8
   845                           
   846  0078                     ___awmod@counter:	
   847                           ; 1 bytes @ 0x8
   848                           
   849  0078                     ___lwmod@counter:	
   850                           ; 1 bytes @ 0x8
   851                           
   852  0078                     ___lwdiv@quotient:	
   853                           ; 1 bytes @ 0x8
   854                           
   855                           
   856                           ; 2 bytes @ 0x8
   857  0078                     	ds	1
   858  0079                     ??___awdiv:
   859  0079                     set_Cursor@direction:	
   860                           ; 1 bytes @ 0x9
   861                           
   862  0079                     ___awmod@sign:	
   863                           ; 1 bytes @ 0x9
   864                           
   865                           
   866                           ; 1 bytes @ 0x9
   867  0079                     	ds	1
   868  007A                     ___lwdiv@counter:
   869                           
   870                           ; 1 bytes @ 0xA
   871  007A                     	ds	1
   872                           
   873                           	psect	cstackBANK0
   874  0020                     __pcstackBANK0:
   875  0020                     ?___awdiv:
   876  0020                     w_String@data:	
   877                           ; 2 bytes @ 0x0
   878                           
   879  0020                     enviar_string@i:	
   880                           ; 1 bytes @ 0x0
   881                           
   882  0020                     ___awdiv@divisor:	
   883                           ; 2 bytes @ 0x0
   884                           
   885                           
   886                           ; 2 bytes @ 0x0
   887  0020                     	ds	1
   888  0021                     w_String@i:
   889                           
   890                           ; 1 bytes @ 0x1
   891  0021                     	ds	1
   892  0022                     ??_w_Titulos:
   893  0022                     enviar_string@dato:	
   894                           ; 1 bytes @ 0x2
   895                           
   896  0022                     ___awdiv@dividend:	
   897                           ; 1 bytes @ 0x2
   898                           
   899                           
   900                           ; 2 bytes @ 0x2
   901  0022                     	ds	2
   902  0024                     ___awdiv@counter:
   903                           
   904                           ; 1 bytes @ 0x4
   905  0024                     	ds	1
   906  0025                     ___awdiv@sign:
   907                           
   908                           ; 1 bytes @ 0x5
   909  0025                     	ds	1
   910  0026                     ___awdiv@quotient:
   911  0026                     w_Titulos@title:	
   912                           ; 2 bytes @ 0x6
   913                           
   914                           
   915                           ; 16 bytes @ 0x6
   916  0026                     	ds	2
   917  0028                     ?_divisor:
   918  0028                     ?_map:	
   919                           ; 1 bytes @ 0x8
   920                           
   921  0028                     divisor@num:	
   922                           ; 2 bytes @ 0x8
   923                           
   924                           
   925                           ; 2 bytes @ 0x8
   926  0028                     	ds	2
   927  002A                     ??_map:
   928  002A                     divisor@centena:	
   929                           ; 1 bytes @ 0xA
   930                           
   931                           
   932                           ; 1 bytes @ 0xA
   933  002A                     	ds	1
   934  002B                     divisor@decena:
   935                           
   936                           ; 1 bytes @ 0xB
   937  002B                     	ds	1
   938  002C                     divisor@unidad:
   939  002C                     map@res:	
   940                           ; 1 bytes @ 0xC
   941                           
   942                           
   943                           ; 2 bytes @ 0xC
   944  002C                     	ds	1
   945  002D                     ??_divisor:
   946                           
   947                           ; 1 bytes @ 0xD
   948  002D                     	ds	1
   949  002E                     map@num:
   950                           
   951                           ; 1 bytes @ 0xE
   952  002E                     	ds	2
   953  0030                     divisor@aux:
   954                           
   955                           ; 1 bytes @ 0x10
   956  0030                     	ds	6
   957  0036                     ??_main:
   958                           
   959                           ; 1 bytes @ 0x16
   960  0036                     	ds	5
   961  003B                     main@pot_string:
   962                           
   963                           ; 5 bytes @ 0x1B
   964  003B                     	ds	5
   965  0040                     main@cont_string:
   966                           
   967                           ; 4 bytes @ 0x20
   968  0040                     	ds	4
   969  0044                     main@temp_string:
   970                           
   971                           ; 4 bytes @ 0x24
   972  0044                     	ds	4
   973                           
   974                           	psect	maintext
   975  0036                     __pmaintext:	
   976 ;;
   977 ;;Main: autosize = 0, tempsize = 5, incstack = 0, save=0
   978 ;;
   979 ;; *************** function _main *****************
   980 ;; Defined at:
   981 ;;		line 85 in file "D2_SPI_Master.c"
   982 ;; Parameters:    Size  Location     Type
   983 ;;		None
   984 ;; Auto vars:     Size  Location     Type
   985 ;;  pot_string      5   27[BANK0 ] unsigned char [5]
   986 ;;  temp_string     4   36[BANK0 ] unsigned char [4]
   987 ;;  cont_string     4   32[BANK0 ] unsigned char [4]
   988 ;; Return value:  Size  Location     Type
   989 ;;                  1    wreg      void 
   990 ;; Registers used:
   991 ;;		wreg, fsr0l, fsr0h, status,2, status,0, btemp+1, pclath, cstack
   992 ;; Tracked objects:
   993 ;;		On entry : B00/0
   994 ;;		On exit  : 0/0
   995 ;;		Unchanged: 0/0
   996 ;; Data sizes:     COMMON   BANK0   BANK1   BANK3   BANK2
   997 ;;      Params:         0       0       0       0       0
   998 ;;      Locals:         0      13       0       0       0
   999 ;;      Temps:          0       5       0       0       0
  1000 ;;      Totals:         0      18       0       0       0
  1001 ;;Total ram usage:       18 bytes
  1002 ;; Hardware stack levels required when called: 5
  1003 ;; This function calls:
  1004 ;;		_config_io
  1005 ;;		_config_reloj
  1006 ;;		_config_timer1
  1007 ;;		_config_tx
  1008 ;;		_divisor
  1009 ;;		_enviar_char
  1010 ;;		_enviar_string
  1011 ;;		_ini_LCD
  1012 ;;		_map
  1013 ;;		_set_Cursor
  1014 ;;		_spi_Master
  1015 ;;		_spi_Read
  1016 ;;		_w_Char
  1017 ;;		_w_Titulos
  1018 ;; This function is called by:
  1019 ;;		Startup code after reset
  1020 ;; This function uses a non-reentrant model
  1021 ;;
  1022                           
  1023                           
  1024                           ;psect for function _main
  1025  0036                     _main:
  1026  0036                     l1630:	
  1027                           ;incstack = 0
  1028                           ; Regs used in _main: [wreg-fsr0h+status,2+status,0+btemp+1+pclath+cstack]
  1029                           
  1030                           
  1031                           ;D2_SPI_Master.c: 87:     config_reloj();
  1032  0036  120A  118A  269B  120A  118A  	fcall	_config_reloj
  1033                           
  1034                           ;D2_SPI_Master.c: 88:     config_io();
  1035  003B  120A  118A  25EA  120A  118A  	fcall	_config_io
  1036  0040                     l1632:
  1037                           
  1038                           ;D2_SPI_Master.c: 89:     spi_Master();
  1039  0040  120A  118A  267E  120A  118A  	fcall	_spi_Master
  1040  0045                     l1634:
  1041                           
  1042                           ;D2_SPI_Master.c: 90:     config_tx();
  1043  0045  120A  118A  2629  120A  118A  	fcall	_config_tx
  1044  004A                     l1636:
  1045                           
  1046                           ;D2_SPI_Master.c: 91:     config_timer1();
  1047  004A  120A  118A  263B  120A  118A  	fcall	_config_timer1
  1048  004F                     l1638:
  1049                           
  1050                           ;D2_SPI_Master.c: 93:     ini_LCD();
  1051  004F  120A  118A  2417  120A  118A  	fcall	_ini_LCD
  1052  0054                     l1640:
  1053                           
  1054                           ;D2_SPI_Master.c: 94:     w_Titulos();
  1055  0054  120A  118A  228D  120A  118A  	fcall	_w_Titulos
  1056  0059                     l1642:
  1057                           
  1058                           ;D2_SPI_Master.c: 97:     {;D2_SPI_Master.c: 98:         PORTBbits.RB0 = 0;
  1059  0059  1283               	bcf	3,5	;RP0=0, select bank0
  1060  005A  1303               	bcf	3,6	;RP1=0, select bank0
  1061  005B  1006               	bcf	6,0	;volatile
  1062  005C                     l1644:
  1063                           
  1064                           ;D2_SPI_Master.c: 99:         _delay((unsigned long)((5)*(4000000/4000.0)));
  1065  005C  3007               	movlw	7
  1066  005D  1283               	bcf	3,5	;RP0=0, select bank0
  1067  005E  1303               	bcf	3,6	;RP1=0, select bank0
  1068  005F  00B7               	movwf	??_main+1
  1069  0060  307C               	movlw	124
  1070  0061  00B6               	movwf	??_main
  1071  0062                     u917:
  1072  0062  0BB6               	decfsz	??_main,f
  1073  0063  2862               	goto	u917
  1074  0064  0BB7               	decfsz	??_main+1,f
  1075  0065  2862               	goto	u917
  1076  0066  0000               	nop
  1077  0067                     l1646:
  1078                           
  1079                           ;D2_SPI_Master.c: 100:         SSPBUF = enviar_nada;
  1080  0067  1283               	bcf	3,5	;RP0=0, select bank0
  1081  0068  1303               	bcf	3,6	;RP1=0, select bank0
  1082  0069  0856               	movf	_enviar_nada,w
  1083  006A  0093               	movwf	19	;volatile
  1084  006B                     l1648:
  1085                           
  1086                           ;D2_SPI_Master.c: 101:         pot.var8bits = spi_Read();
  1087  006B  120A  118A  2689  120A  118A  	fcall	_spi_Read
  1088  0070  1283               	bcf	3,5	;RP0=0, select bank0
  1089  0071  1303               	bcf	3,6	;RP1=0, select bank0
  1090  0072  00B6               	movwf	??_main
  1091  0073  0836               	movf	??_main,w
  1092  0074  00E3               	movwf	_pot
  1093  0075                     l1650:
  1094                           
  1095                           ;D2_SPI_Master.c: 102:         _delay((unsigned long)((5)*(4000000/4000.0)));
  1096  0075  3007               	movlw	7
  1097  0076  1283               	bcf	3,5	;RP0=0, select bank0
  1098  0077  1303               	bcf	3,6	;RP1=0, select bank0
  1099  0078  00B7               	movwf	??_main+1
  1100  0079  307C               	movlw	124
  1101  007A  00B6               	movwf	??_main
  1102  007B                     u927:
  1103  007B  0BB6               	decfsz	??_main,f
  1104  007C  287B               	goto	u927
  1105  007D  0BB7               	decfsz	??_main+1,f
  1106  007E  287B               	goto	u927
  1107  007F  0000               	nop
  1108  0080                     l1652:
  1109                           
  1110                           ;D2_SPI_Master.c: 103:         PORTBbits.RB0 = 1;
  1111  0080  1283               	bcf	3,5	;RP0=0, select bank0
  1112  0081  1303               	bcf	3,6	;RP1=0, select bank0
  1113  0082  1406               	bsf	6,0	;volatile
  1114  0083                     l1654:
  1115                           
  1116                           ;D2_SPI_Master.c: 104:         _delay((unsigned long)((5)*(4000000/4000.0)));
  1117  0083  3007               	movlw	7
  1118  0084  1283               	bcf	3,5	;RP0=0, select bank0
  1119  0085  1303               	bcf	3,6	;RP1=0, select bank0
  1120  0086  00B7               	movwf	??_main+1
  1121  0087  307C               	movlw	124
  1122  0088  00B6               	movwf	??_main
  1123  0089                     u937:
  1124  0089  0BB6               	decfsz	??_main,f
  1125  008A  2889               	goto	u937
  1126  008B  0BB7               	decfsz	??_main+1,f
  1127  008C  2889               	goto	u937
  1128  008D  0000               	nop
  1129  008E                     l1656:
  1130                           
  1131                           ;D2_SPI_Master.c: 106:         PORTBbits.RB1 = 0;
  1132  008E  1283               	bcf	3,5	;RP0=0, select bank0
  1133  008F  1303               	bcf	3,6	;RP1=0, select bank0
  1134  0090  1086               	bcf	6,1	;volatile
  1135  0091                     l1658:
  1136                           
  1137                           ;D2_SPI_Master.c: 107:         _delay((unsigned long)((5)*(4000000/4000.0)));
  1138  0091  3007               	movlw	7
  1139  0092  1283               	bcf	3,5	;RP0=0, select bank0
  1140  0093  1303               	bcf	3,6	;RP1=0, select bank0
  1141  0094  00B7               	movwf	??_main+1
  1142  0095  307C               	movlw	124
  1143  0096  00B6               	movwf	??_main
  1144  0097                     u947:
  1145  0097  0BB6               	decfsz	??_main,f
  1146  0098  2897               	goto	u947
  1147  0099  0BB7               	decfsz	??_main+1,f
  1148  009A  2897               	goto	u947
  1149  009B  0000               	nop
  1150  009C                     l1660:
  1151                           
  1152                           ;D2_SPI_Master.c: 108:         SSPBUF = enviar_nada;
  1153  009C  1283               	bcf	3,5	;RP0=0, select bank0
  1154  009D  1303               	bcf	3,6	;RP1=0, select bank0
  1155  009E  0856               	movf	_enviar_nada,w
  1156  009F  0093               	movwf	19	;volatile
  1157  00A0                     l1662:
  1158                           
  1159                           ;D2_SPI_Master.c: 109:         cont.var8bits = spi_Read();
  1160  00A0  120A  118A  2689  120A  118A  	fcall	_spi_Read
  1161  00A5  1283               	bcf	3,5	;RP0=0, select bank0
  1162  00A6  1303               	bcf	3,6	;RP1=0, select bank0
  1163  00A7  00B6               	movwf	??_main
  1164  00A8  0836               	movf	??_main,w
  1165  00A9  00DD               	movwf	_cont
  1166  00AA                     l1664:
  1167                           
  1168                           ;D2_SPI_Master.c: 110:         _delay((unsigned long)((5)*(4000000/4000.0)));
  1169  00AA  3007               	movlw	7
  1170  00AB  1283               	bcf	3,5	;RP0=0, select bank0
  1171  00AC  1303               	bcf	3,6	;RP1=0, select bank0
  1172  00AD  00B7               	movwf	??_main+1
  1173  00AE  307C               	movlw	124
  1174  00AF  00B6               	movwf	??_main
  1175  00B0                     u957:
  1176  00B0  0BB6               	decfsz	??_main,f
  1177  00B1  28B0               	goto	u957
  1178  00B2  0BB7               	decfsz	??_main+1,f
  1179  00B3  28B0               	goto	u957
  1180  00B4  0000               	nop
  1181  00B5                     l1666:
  1182                           
  1183                           ;D2_SPI_Master.c: 111:         PORTBbits.RB1 = 1;
  1184  00B5  1283               	bcf	3,5	;RP0=0, select bank0
  1185  00B6  1303               	bcf	3,6	;RP1=0, select bank0
  1186  00B7  1486               	bsf	6,1	;volatile
  1187  00B8                     l1668:
  1188                           
  1189                           ;D2_SPI_Master.c: 112:         _delay((unsigned long)((5)*(4000000/4000.0)));
  1190  00B8  3007               	movlw	7
  1191  00B9  1283               	bcf	3,5	;RP0=0, select bank0
  1192  00BA  1303               	bcf	3,6	;RP1=0, select bank0
  1193  00BB  00B7               	movwf	??_main+1
  1194  00BC  307C               	movlw	124
  1195  00BD  00B6               	movwf	??_main
  1196  00BE                     u967:
  1197  00BE  0BB6               	decfsz	??_main,f
  1198  00BF  28BE               	goto	u967
  1199  00C0  0BB7               	decfsz	??_main+1,f
  1200  00C1  28BE               	goto	u967
  1201  00C2  0000               	nop
  1202  00C3                     l1670:
  1203                           
  1204                           ;D2_SPI_Master.c: 114:         PORTBbits.RB2 = 0;
  1205  00C3  1283               	bcf	3,5	;RP0=0, select bank0
  1206  00C4  1303               	bcf	3,6	;RP1=0, select bank0
  1207  00C5  1106               	bcf	6,2	;volatile
  1208  00C6                     l1672:
  1209                           
  1210                           ;D2_SPI_Master.c: 115:         _delay((unsigned long)((5)*(4000000/4000.0)));
  1211  00C6  3007               	movlw	7
  1212  00C7  1283               	bcf	3,5	;RP0=0, select bank0
  1213  00C8  1303               	bcf	3,6	;RP1=0, select bank0
  1214  00C9  00B7               	movwf	??_main+1
  1215  00CA  307C               	movlw	124
  1216  00CB  00B6               	movwf	??_main
  1217  00CC                     u977:
  1218  00CC  0BB6               	decfsz	??_main,f
  1219  00CD  28CC               	goto	u977
  1220  00CE  0BB7               	decfsz	??_main+1,f
  1221  00CF  28CC               	goto	u977
  1222  00D0  0000               	nop
  1223  00D1                     l1674:
  1224                           
  1225                           ;D2_SPI_Master.c: 116:         SSPBUF = enviar_nada;
  1226  00D1  1283               	bcf	3,5	;RP0=0, select bank0
  1227  00D2  1303               	bcf	3,6	;RP1=0, select bank0
  1228  00D3  0856               	movf	_enviar_nada,w
  1229  00D4  0093               	movwf	19	;volatile
  1230  00D5                     l1676:
  1231                           
  1232                           ;D2_SPI_Master.c: 117:         temp.var8bits = spi_Read();
  1233  00D5  120A  118A  2689  120A  118A  	fcall	_spi_Read
  1234  00DA  1283               	bcf	3,5	;RP0=0, select bank0
  1235  00DB  1303               	bcf	3,6	;RP1=0, select bank0
  1236  00DC  00B6               	movwf	??_main
  1237  00DD  0836               	movf	??_main,w
  1238  00DE  00D7               	movwf	_temp
  1239  00DF                     l1678:
  1240                           
  1241                           ;D2_SPI_Master.c: 118:         _delay((unsigned long)((5)*(4000000/4000.0)));
  1242  00DF  3007               	movlw	7
  1243  00E0  1283               	bcf	3,5	;RP0=0, select bank0
  1244  00E1  1303               	bcf	3,6	;RP1=0, select bank0
  1245  00E2  00B7               	movwf	??_main+1
  1246  00E3  307C               	movlw	124
  1247  00E4  00B6               	movwf	??_main
  1248  00E5                     u987:
  1249  00E5  0BB6               	decfsz	??_main,f
  1250  00E6  28E5               	goto	u987
  1251  00E7  0BB7               	decfsz	??_main+1,f
  1252  00E8  28E5               	goto	u987
  1253  00E9  0000               	nop
  1254  00EA                     l1680:
  1255                           
  1256                           ;D2_SPI_Master.c: 119:         PORTBbits.RB2 = 1;
  1257  00EA  1283               	bcf	3,5	;RP0=0, select bank0
  1258  00EB  1303               	bcf	3,6	;RP1=0, select bank0
  1259  00EC  1506               	bsf	6,2	;volatile
  1260  00ED                     l1682:
  1261                           
  1262                           ;D2_SPI_Master.c: 120:         _delay((unsigned long)((5)*(4000000/4000.0)));
  1263  00ED  3007               	movlw	7
  1264  00EE  1283               	bcf	3,5	;RP0=0, select bank0
  1265  00EF  1303               	bcf	3,6	;RP1=0, select bank0
  1266  00F0  00B7               	movwf	??_main+1
  1267  00F1  307C               	movlw	124
  1268  00F2  00B6               	movwf	??_main
  1269  00F3                     u997:
  1270  00F3  0BB6               	decfsz	??_main,f
  1271  00F4  28F3               	goto	u997
  1272  00F5  0BB7               	decfsz	??_main+1,f
  1273  00F6  28F3               	goto	u997
  1274  00F7  0000               	nop
  1275  00F8                     l1684:
  1276                           
  1277                           ;D2_SPI_Master.c: 123:         pot.mapeado = map(pot.var8bits);
  1278  00F8  1283               	bcf	3,5	;RP0=0, select bank0
  1279  00F9  1303               	bcf	3,6	;RP1=0, select bank0
  1280  00FA  0863               	movf	_pot,w
  1281  00FB  120A  118A  253E  120A  118A  	fcall	_map
  1282  0100  1283               	bcf	3,5	;RP0=0, select bank0
  1283  0101  1303               	bcf	3,6	;RP1=0, select bank0
  1284  0102  0829               	movf	?_map+1,w
  1285  0103  00E5               	movwf	_pot+2
  1286  0104  0828               	movf	?_map,w
  1287  0105  00E4               	movwf	_pot+1
  1288  0106                     l1686:
  1289                           
  1290                           ;D2_SPI_Master.c: 125:         divisor(pot.mapeado, &pot.centenas, &pot.decenas, &pot.un
      +                          idades);
  1291  0106  0865               	movf	_pot+2,w
  1292  0107  00A9               	movwf	divisor@num+1
  1293  0108  0864               	movf	_pot+1,w
  1294  0109  00A8               	movwf	divisor@num
  1295  010A  3066               	movlw	(low ((_pot| 0+3)))& (0+255)
  1296  010B  00B6               	movwf	??_main
  1297  010C  0836               	movf	??_main,w
  1298  010D  00AA               	movwf	divisor@centena
  1299  010E  3067               	movlw	(low ((_pot| 0+4)))& (0+255)
  1300  010F  00B7               	movwf	??_main+1
  1301  0110  0837               	movf	??_main+1,w
  1302  0111  00AB               	movwf	divisor@decena
  1303  0112  3068               	movlw	(low ((_pot| 0+5)))& (0+255)
  1304  0113  00B8               	movwf	??_main+2
  1305  0114  0838               	movf	??_main+2,w
  1306  0115  00AC               	movwf	divisor@unidad
  1307  0116  120A  118A  2360  120A  118A  	fcall	_divisor
  1308  011B                     l1688:
  1309                           
  1310                           ;D2_SPI_Master.c: 126:         divisor(cont.var8bits, &cont.centenas, &cont.decenas, &co
      +                          nt.unidades);
  1311  011B  1283               	bcf	3,5	;RP0=0, select bank0
  1312  011C  1303               	bcf	3,6	;RP1=0, select bank0
  1313  011D  085D               	movf	_cont,w
  1314  011E  00B6               	movwf	??_main
  1315  011F  01B7               	clrf	??_main+1
  1316  0120  0836               	movf	??_main,w
  1317  0121  00A8               	movwf	divisor@num
  1318  0122  0837               	movf	??_main+1,w
  1319  0123  00A9               	movwf	divisor@num+1
  1320  0124  3060               	movlw	(low ((_cont| 0+3)))& (0+255)
  1321  0125  00B8               	movwf	??_main+2
  1322  0126  0838               	movf	??_main+2,w
  1323  0127  00AA               	movwf	divisor@centena
  1324  0128  3061               	movlw	(low ((_cont| 0+4)))& (0+255)
  1325  0129  00B9               	movwf	??_main+3
  1326  012A  0839               	movf	??_main+3,w
  1327  012B  00AB               	movwf	divisor@decena
  1328  012C  3062               	movlw	(low ((_cont| 0+5)))& (0+255)
  1329  012D  00BA               	movwf	??_main+4
  1330  012E  083A               	movf	??_main+4,w
  1331  012F  00AC               	movwf	divisor@unidad
  1332  0130  120A  118A  2360  120A  118A  	fcall	_divisor
  1333  0135                     l1690:
  1334                           
  1335                           ;D2_SPI_Master.c: 127:         divisor(temp.var8bits, &temp.centenas, &temp.decenas, &te
      +                          mp.unidades);
  1336  0135  1283               	bcf	3,5	;RP0=0, select bank0
  1337  0136  1303               	bcf	3,6	;RP1=0, select bank0
  1338  0137  0857               	movf	_temp,w
  1339  0138  00B6               	movwf	??_main
  1340  0139  01B7               	clrf	??_main+1
  1341  013A  0836               	movf	??_main,w
  1342  013B  00A8               	movwf	divisor@num
  1343  013C  0837               	movf	??_main+1,w
  1344  013D  00A9               	movwf	divisor@num+1
  1345  013E  305A               	movlw	(low ((_temp| 0+3)))& (0+255)
  1346  013F  00B8               	movwf	??_main+2
  1347  0140  0838               	movf	??_main+2,w
  1348  0141  00AA               	movwf	divisor@centena
  1349  0142  305B               	movlw	(low ((_temp| 0+4)))& (0+255)
  1350  0143  00B9               	movwf	??_main+3
  1351  0144  0839               	movf	??_main+3,w
  1352  0145  00AB               	movwf	divisor@decena
  1353  0146  305C               	movlw	(low ((_temp| 0+5)))& (0+255)
  1354  0147  00BA               	movwf	??_main+4
  1355  0148  083A               	movf	??_main+4,w
  1356  0149  00AC               	movwf	divisor@unidad
  1357  014A  120A  118A  2360  120A  118A  	fcall	_divisor
  1358  014F                     l1692:
  1359                           
  1360                           ;D2_SPI_Master.c: 130:         set_Cursor(1,0);
  1361  014F  01F5               	clrf	set_Cursor@pos
  1362  0150  3001               	movlw	1
  1363  0151  120A  118A  25B2  120A  118A  	fcall	_set_Cursor
  1364  0156                     l1694:
  1365                           
  1366                           ;D2_SPI_Master.c: 131:         w_Char(pot.centenas + '0');
  1367  0156  1283               	bcf	3,5	;RP0=0, select bank0
  1368  0157  1303               	bcf	3,6	;RP1=0, select bank0
  1369  0158  0866               	movf	_pot+3,w
  1370  0159  3E30               	addlw	48
  1371  015A  120A  118A  265A  120A  118A  	fcall	_w_Char
  1372  015F                     l1696:
  1373                           
  1374                           ;D2_SPI_Master.c: 132:         set_Cursor(1,2);
  1375  015F  3002               	movlw	2
  1376  0160  1283               	bcf	3,5	;RP0=0, select bank0
  1377  0161  1303               	bcf	3,6	;RP1=0, select bank0
  1378  0162  00B6               	movwf	??_main
  1379  0163  0836               	movf	??_main,w
  1380  0164  00F5               	movwf	set_Cursor@pos
  1381  0165  3001               	movlw	1
  1382  0166  120A  118A  25B2  120A  118A  	fcall	_set_Cursor
  1383  016B                     l1698:
  1384                           
  1385                           ;D2_SPI_Master.c: 133:         w_Char(pot.decenas + '0');
  1386  016B  1283               	bcf	3,5	;RP0=0, select bank0
  1387  016C  1303               	bcf	3,6	;RP1=0, select bank0
  1388  016D  0867               	movf	_pot+4,w
  1389  016E  3E30               	addlw	48
  1390  016F  120A  118A  265A  120A  118A  	fcall	_w_Char
  1391  0174                     l1700:
  1392                           
  1393                           ;D2_SPI_Master.c: 134:         set_Cursor(1,3);
  1394  0174  3003               	movlw	3
  1395  0175  1283               	bcf	3,5	;RP0=0, select bank0
  1396  0176  1303               	bcf	3,6	;RP1=0, select bank0
  1397  0177  00B6               	movwf	??_main
  1398  0178  0836               	movf	??_main,w
  1399  0179  00F5               	movwf	set_Cursor@pos
  1400  017A  3001               	movlw	1
  1401  017B  120A  118A  25B2  120A  118A  	fcall	_set_Cursor
  1402  0180                     l1702:
  1403                           
  1404                           ;D2_SPI_Master.c: 135:         w_Char(pot.unidades + '0');
  1405  0180  1283               	bcf	3,5	;RP0=0, select bank0
  1406  0181  1303               	bcf	3,6	;RP1=0, select bank0
  1407  0182  0868               	movf	_pot+5,w
  1408  0183  3E30               	addlw	48
  1409  0184  120A  118A  265A  120A  118A  	fcall	_w_Char
  1410  0189                     l1704:
  1411                           
  1412                           ;D2_SPI_Master.c: 138:         set_Cursor(1,6);
  1413  0189  3006               	movlw	6
  1414  018A  1283               	bcf	3,5	;RP0=0, select bank0
  1415  018B  1303               	bcf	3,6	;RP1=0, select bank0
  1416  018C  00B6               	movwf	??_main
  1417  018D  0836               	movf	??_main,w
  1418  018E  00F5               	movwf	set_Cursor@pos
  1419  018F  3001               	movlw	1
  1420  0190  120A  118A  25B2  120A  118A  	fcall	_set_Cursor
  1421  0195                     l1706:
  1422                           
  1423                           ;D2_SPI_Master.c: 139:         w_Char(cont.centenas + '0');
  1424  0195  1283               	bcf	3,5	;RP0=0, select bank0
  1425  0196  1303               	bcf	3,6	;RP1=0, select bank0
  1426  0197  0860               	movf	_cont+3,w
  1427  0198  3E30               	addlw	48
  1428  0199  120A  118A  265A  120A  118A  	fcall	_w_Char
  1429  019E                     l1708:
  1430                           
  1431                           ;D2_SPI_Master.c: 140:         set_Cursor(1,7);
  1432  019E  3007               	movlw	7
  1433  019F  1283               	bcf	3,5	;RP0=0, select bank0
  1434  01A0  1303               	bcf	3,6	;RP1=0, select bank0
  1435  01A1  00B6               	movwf	??_main
  1436  01A2  0836               	movf	??_main,w
  1437  01A3  00F5               	movwf	set_Cursor@pos
  1438  01A4  3001               	movlw	1
  1439  01A5  120A  118A  25B2  120A  118A  	fcall	_set_Cursor
  1440  01AA                     l1710:
  1441                           
  1442                           ;D2_SPI_Master.c: 141:         w_Char(cont.decenas + '0');
  1443  01AA  1283               	bcf	3,5	;RP0=0, select bank0
  1444  01AB  1303               	bcf	3,6	;RP1=0, select bank0
  1445  01AC  0861               	movf	_cont+4,w
  1446  01AD  3E30               	addlw	48
  1447  01AE  120A  118A  265A  120A  118A  	fcall	_w_Char
  1448  01B3                     l1712:
  1449                           
  1450                           ;D2_SPI_Master.c: 142:         set_Cursor(1,8);
  1451  01B3  3008               	movlw	8
  1452  01B4  1283               	bcf	3,5	;RP0=0, select bank0
  1453  01B5  1303               	bcf	3,6	;RP1=0, select bank0
  1454  01B6  00B6               	movwf	??_main
  1455  01B7  0836               	movf	??_main,w
  1456  01B8  00F5               	movwf	set_Cursor@pos
  1457  01B9  3001               	movlw	1
  1458  01BA  120A  118A  25B2  120A  118A  	fcall	_set_Cursor
  1459  01BF                     l1714:
  1460                           
  1461                           ;D2_SPI_Master.c: 143:         w_Char(cont.unidades + '0');
  1462  01BF  1283               	bcf	3,5	;RP0=0, select bank0
  1463  01C0  1303               	bcf	3,6	;RP1=0, select bank0
  1464  01C1  0862               	movf	_cont+5,w
  1465  01C2  3E30               	addlw	48
  1466  01C3  120A  118A  265A  120A  118A  	fcall	_w_Char
  1467  01C8                     l1716:
  1468                           
  1469                           ;D2_SPI_Master.c: 146:         set_Cursor(1,11);
  1470  01C8  300B               	movlw	11
  1471  01C9  1283               	bcf	3,5	;RP0=0, select bank0
  1472  01CA  1303               	bcf	3,6	;RP1=0, select bank0
  1473  01CB  00B6               	movwf	??_main
  1474  01CC  0836               	movf	??_main,w
  1475  01CD  00F5               	movwf	set_Cursor@pos
  1476  01CE  3001               	movlw	1
  1477  01CF  120A  118A  25B2  120A  118A  	fcall	_set_Cursor
  1478  01D4                     l1718:
  1479                           
  1480                           ;D2_SPI_Master.c: 147:         w_Char(temp.centenas + '0');
  1481  01D4  1283               	bcf	3,5	;RP0=0, select bank0
  1482  01D5  1303               	bcf	3,6	;RP1=0, select bank0
  1483  01D6  085A               	movf	_temp+3,w
  1484  01D7  3E30               	addlw	48
  1485  01D8  120A  118A  265A  120A  118A  	fcall	_w_Char
  1486  01DD                     l1720:
  1487                           
  1488                           ;D2_SPI_Master.c: 148:         set_Cursor(1,12);
  1489  01DD  300C               	movlw	12
  1490  01DE  1283               	bcf	3,5	;RP0=0, select bank0
  1491  01DF  1303               	bcf	3,6	;RP1=0, select bank0
  1492  01E0  00B6               	movwf	??_main
  1493  01E1  0836               	movf	??_main,w
  1494  01E2  00F5               	movwf	set_Cursor@pos
  1495  01E3  3001               	movlw	1
  1496  01E4  120A  118A  25B2  120A  118A  	fcall	_set_Cursor
  1497  01E9                     l1722:
  1498                           
  1499                           ;D2_SPI_Master.c: 149:         w_Char(temp.decenas + '0');
  1500  01E9  1283               	bcf	3,5	;RP0=0, select bank0
  1501  01EA  1303               	bcf	3,6	;RP1=0, select bank0
  1502  01EB  085B               	movf	_temp+4,w
  1503  01EC  3E30               	addlw	48
  1504  01ED  120A  118A  265A  120A  118A  	fcall	_w_Char
  1505  01F2                     l1724:
  1506                           
  1507                           ;D2_SPI_Master.c: 150:         set_Cursor(1,13);
  1508  01F2  300D               	movlw	13
  1509  01F3  1283               	bcf	3,5	;RP0=0, select bank0
  1510  01F4  1303               	bcf	3,6	;RP1=0, select bank0
  1511  01F5  00B6               	movwf	??_main
  1512  01F6  0836               	movf	??_main,w
  1513  01F7  00F5               	movwf	set_Cursor@pos
  1514  01F8  3001               	movlw	1
  1515  01F9  120A  118A  25B2  120A  118A  	fcall	_set_Cursor
  1516  01FE                     l1726:
  1517                           
  1518                           ;D2_SPI_Master.c: 151:         w_Char(temp.unidades + '0');
  1519  01FE  1283               	bcf	3,5	;RP0=0, select bank0
  1520  01FF  1303               	bcf	3,6	;RP1=0, select bank0
  1521  0200  085C               	movf	_temp+5,w
  1522  0201  3E30               	addlw	48
  1523  0202  120A  118A  265A  120A  118A  	fcall	_w_Char
  1524  0207                     l1728:
  1525                           
  1526                           ;D2_SPI_Master.c: 154:         char pot_string[] = {pot.centenas+'0', '.', pot.decenas+'
      +                          0', pot.unidades+'0', '\0'};
  1527  0207  303B               	movlw	main@pot_string& (0+255)
  1528  0208  0084               	movwf	4
  1529  0209  3005               	movlw	5
  1530  020A  00FF               	movwf	btemp+1
  1531  020B                     u890:
  1532  020B  1383               	bcf	3,7	;select IRP bank0
  1533  020C  0180               	clrf	0
  1534  020D  0A84               	incf	4,f
  1535  020E  0BFF               	decfsz	btemp+1,f
  1536  020F  2A0B               	goto	u890
  1537  0210                     l1730:
  1538  0210  1283               	bcf	3,5	;RP0=0, select bank0
  1539  0211  1303               	bcf	3,6	;RP1=0, select bank0
  1540  0212  0866               	movf	_pot+3,w
  1541  0213  3E30               	addlw	48
  1542  0214  00B6               	movwf	??_main
  1543  0215  0836               	movf	??_main,w
  1544  0216  00BB               	movwf	main@pot_string
  1545  0217                     l1732:
  1546  0217  302E               	movlw	46
  1547  0218  00B6               	movwf	??_main
  1548  0219  0836               	movf	??_main,w
  1549  021A  00BC               	movwf	main@pot_string+1
  1550  021B                     l1734:
  1551  021B  0867               	movf	_pot+4,w
  1552  021C  3E30               	addlw	48
  1553  021D  00B6               	movwf	??_main
  1554  021E  0836               	movf	??_main,w
  1555  021F  00BD               	movwf	main@pot_string+2
  1556  0220                     l1736:
  1557  0220  0868               	movf	_pot+5,w
  1558  0221  3E30               	addlw	48
  1559  0222  00B6               	movwf	??_main
  1560  0223  0836               	movf	??_main,w
  1561  0224  00BE               	movwf	main@pot_string+3
  1562  0225                     l1738:
  1563  0225  01BF               	clrf	main@pot_string+4
  1564  0226                     l1740:
  1565                           
  1566                           ;D2_SPI_Master.c: 155:         char cont_string[] = {cont.centenas+'0', cont.decenas+'0'
      +                          , cont.unidades+'0', '\0'};
  1567  0226  3000               	movlw	0
  1568  0227  00C3               	movwf	main@cont_string+3
  1569  0228  3000               	movlw	0
  1570  0229  00C2               	movwf	main@cont_string+2
  1571  022A  3000               	movlw	0
  1572  022B  00C1               	movwf	main@cont_string+1
  1573  022C  3000               	movlw	0
  1574  022D  00C0               	movwf	main@cont_string
  1575  022E                     l1742:
  1576  022E  0860               	movf	_cont+3,w
  1577  022F  3E30               	addlw	48
  1578  0230  00B6               	movwf	??_main
  1579  0231  0836               	movf	??_main,w
  1580  0232  00C0               	movwf	main@cont_string
  1581  0233                     l1744:
  1582  0233  0861               	movf	_cont+4,w
  1583  0234  3E30               	addlw	48
  1584  0235  00B6               	movwf	??_main
  1585  0236  0836               	movf	??_main,w
  1586  0237  00C1               	movwf	main@cont_string+1
  1587  0238                     l1746:
  1588  0238  0862               	movf	_cont+5,w
  1589  0239  3E30               	addlw	48
  1590  023A  00B6               	movwf	??_main
  1591  023B  0836               	movf	??_main,w
  1592  023C  00C2               	movwf	main@cont_string+2
  1593  023D                     l1748:
  1594  023D  01C3               	clrf	main@cont_string+3
  1595  023E                     l1750:
  1596                           
  1597                           ;D2_SPI_Master.c: 156:         char temp_string[] = {temp.centenas+'0', temp.decenas+'0'
      +                          , temp.unidades+'0', '\0'};
  1598  023E  3000               	movlw	0
  1599  023F  00C7               	movwf	main@temp_string+3
  1600  0240  3000               	movlw	0
  1601  0241  00C6               	movwf	main@temp_string+2
  1602  0242  3000               	movlw	0
  1603  0243  00C5               	movwf	main@temp_string+1
  1604  0244  3000               	movlw	0
  1605  0245  00C4               	movwf	main@temp_string
  1606  0246                     l1752:
  1607  0246  085A               	movf	_temp+3,w
  1608  0247  3E30               	addlw	48
  1609  0248  00B6               	movwf	??_main
  1610  0249  0836               	movf	??_main,w
  1611  024A  00C4               	movwf	main@temp_string
  1612  024B                     l1754:
  1613  024B  085B               	movf	_temp+4,w
  1614  024C  3E30               	addlw	48
  1615  024D  00B6               	movwf	??_main
  1616  024E  0836               	movf	??_main,w
  1617  024F  00C5               	movwf	main@temp_string+1
  1618  0250                     l1756:
  1619  0250  085C               	movf	_temp+5,w
  1620  0251  3E30               	addlw	48
  1621  0252  00B6               	movwf	??_main
  1622  0253  0836               	movf	??_main,w
  1623  0254  00C6               	movwf	main@temp_string+2
  1624  0255                     l1758:
  1625  0255  01C7               	clrf	main@temp_string+3
  1626  0256                     l1760:
  1627                           
  1628                           ;D2_SPI_Master.c: 159:         if(bandera_UART>1)
  1629  0256  3002               	movlw	2
  1630  0257  0255               	subwf	_bandera_UART,w
  1631  0258  1C03               	skipc
  1632  0259  2A5B               	goto	u901
  1633  025A  2A5C               	goto	u900
  1634  025B                     u901:
  1635  025B  2859               	goto	l1642
  1636  025C                     u900:
  1637  025C                     l1762:
  1638                           
  1639                           ;D2_SPI_Master.c: 160:         {;D2_SPI_Master.c: 161:             enviar_string(txt_pot
      +                          );
  1640  025C  3069               	movlw	(low (_txt_pot| 0))& (0+255)
  1641  025D  120A  118A  24E1  120A  118A  	fcall	_enviar_string
  1642                           
  1643                           ;D2_SPI_Master.c: 162:             enviar_string(pot_string);
  1644  0262  303B               	movlw	(low (main@pot_string| 0))& (0+255)
  1645  0263  120A  118A  24E1  120A  118A  	fcall	_enviar_string
  1646                           
  1647                           ;D2_SPI_Master.c: 164:             enviar_string(txt_cont);
  1648  0268  30B9               	movlw	(low (_txt_cont| 0))& (0+255)
  1649  0269  120A  118A  24E1  120A  118A  	fcall	_enviar_string
  1650                           
  1651                           ;D2_SPI_Master.c: 165:             enviar_string(cont_string);
  1652  026E  3040               	movlw	(low (main@cont_string| 0))& (0+255)
  1653  026F  120A  118A  24E1  120A  118A  	fcall	_enviar_string
  1654                           
  1655                           ;D2_SPI_Master.c: 167:             enviar_string(txt_temp);
  1656  0274  30B0               	movlw	(low (_txt_temp| 0))& (0+255)
  1657  0275  120A  118A  24E1  120A  118A  	fcall	_enviar_string
  1658                           
  1659                           ;D2_SPI_Master.c: 168:             enviar_string(temp_string);
  1660  027A  3044               	movlw	(low (main@temp_string| 0))& (0+255)
  1661  027B  120A  118A  24E1  120A  118A  	fcall	_enviar_string
  1662  0280                     l1764:
  1663                           
  1664                           ;D2_SPI_Master.c: 169:             enviar_char(13);
  1665  0280  300D               	movlw	13
  1666  0281  120A  118A  264D  120A  118A  	fcall	_enviar_char
  1667  0286                     l1766:
  1668                           
  1669                           ;D2_SPI_Master.c: 171:             bandera_UART = 0;
  1670  0286  1283               	bcf	3,5	;RP0=0, select bank0
  1671  0287  1303               	bcf	3,6	;RP1=0, select bank0
  1672  0288  01D5               	clrf	_bandera_UART
  1673  0289  2859               	goto	l1642
  1674  028A  120A  118A  280C   	ljmp	start
  1675  028D                     __end_of_main:
  1676                           
  1677                           	psect	text1
  1678  028D                     __ptext1:	
  1679 ;; *************** function _w_Titulos *****************
  1680 ;; Defined at:
  1681 ;;		line 81 in file "LCD.c"
  1682 ;; Parameters:    Size  Location     Type
  1683 ;;		None
  1684 ;; Auto vars:     Size  Location     Type
  1685 ;;  title          16    6[BANK0 ] unsigned char [16]
  1686 ;; Return value:  Size  Location     Type
  1687 ;;                  1    wreg      void 
  1688 ;; Registers used:
  1689 ;;		wreg, fsr0l, fsr0h, status,2, status,0, pclath, cstack
  1690 ;; Tracked objects:
  1691 ;;		On entry : 0/0
  1692 ;;		On exit  : 0/0
  1693 ;;		Unchanged: 0/0
  1694 ;; Data sizes:     COMMON   BANK0   BANK1   BANK3   BANK2
  1695 ;;      Params:         0       0       0       0       0
  1696 ;;      Locals:         0      16       0       0       0
  1697 ;;      Temps:          0       4       0       0       0
  1698 ;;      Totals:         0      20       0       0       0
  1699 ;;Total ram usage:       20 bytes
  1700 ;; Hardware stack levels used: 1
  1701 ;; Hardware stack levels required when called: 4
  1702 ;; This function calls:
  1703 ;;		_set_Cursor
  1704 ;;		_w_Char
  1705 ;;		_w_String
  1706 ;; This function is called by:
  1707 ;;		_main
  1708 ;; This function uses a non-reentrant model
  1709 ;;
  1710                           
  1711                           
  1712                           ;psect for function _w_Titulos
  1713  028D                     _w_Titulos:
  1714  028D                     l1562:	
  1715                           ;incstack = 0
  1716                           ; Regs used in _w_Titulos: [wreg-fsr0h+status,2+status,0+pclath+cstack]
  1717                           
  1718                           
  1719                           ;LCD.c: 84:     unsigned char title[] = "S1:  S2:   S3: ";
  1720  028D  3026               	movlw	w_Titulos@title& (0+255)
  1721  028E  0084               	movwf	4
  1722  028F  30A0               	movlw	low w_Titulos@F1403
  1723  0290  1283               	bcf	3,5	;RP0=0, select bank0
  1724  0291  1303               	bcf	3,6	;RP1=0, select bank0
  1725  0292  00A2               	movwf	??_w_Titulos
  1726  0293  0804               	movf	4,w
  1727  0294  00A3               	movwf	??_w_Titulos+1
  1728  0295  3010               	movlw	16
  1729  0296  00A4               	movwf	??_w_Titulos+2
  1730  0297                     u850:
  1731  0297  0822               	movf	??_w_Titulos,w
  1732  0298  0084               	movwf	4
  1733  0299  1383               	bcf	3,7	;select IRP bank1
  1734  029A  0800               	movf	0,w
  1735  029B  00A5               	movwf	??_w_Titulos+3
  1736  029C  0AA2               	incf	??_w_Titulos,f
  1737  029D  0823               	movf	??_w_Titulos+1,w
  1738  029E  0084               	movwf	4
  1739  029F  0825               	movf	??_w_Titulos+3,w
  1740  02A0  0080               	movwf	0
  1741  02A1  0AA3               	incf	??_w_Titulos+1,f
  1742  02A2  0BA4               	decfsz	??_w_Titulos+2,f
  1743  02A3  2A97               	goto	u850
  1744  02A4                     l1564:
  1745                           
  1746                           ;LCD.c: 85:     set_Cursor(0,1);
  1747  02A4  01F5               	clrf	set_Cursor@pos
  1748  02A5  0AF5               	incf	set_Cursor@pos,f
  1749  02A6  3000               	movlw	0
  1750  02A7  120A  118A  25B2  120A  118A  	fcall	_set_Cursor
  1751  02AC                     l1566:
  1752                           
  1753                           ;LCD.c: 86:     w_String(title);
  1754  02AC  3026               	movlw	(low (w_Titulos@title| 0))& (0+255)
  1755  02AD  120A  118A  2511  120A  118A  	fcall	_w_String
  1756  02B2                     l1568:
  1757                           
  1758                           ;LCD.c: 89:     set_Cursor(1,1);
  1759  02B2  01F5               	clrf	set_Cursor@pos
  1760  02B3  0AF5               	incf	set_Cursor@pos,f
  1761  02B4  3001               	movlw	1
  1762  02B5  120A  118A  25B2  120A  118A  	fcall	_set_Cursor
  1763  02BA                     l1570:
  1764                           
  1765                           ;LCD.c: 90:     w_Char('.');
  1766  02BA  302E               	movlw	46
  1767  02BB  120A  118A  265A  120A  118A  	fcall	_w_Char
  1768  02C0                     l1572:
  1769                           
  1770                           ;LCD.c: 91:     set_Cursor(1,4);
  1771  02C0  3004               	movlw	4
  1772  02C1  1283               	bcf	3,5	;RP0=0, select bank0
  1773  02C2  1303               	bcf	3,6	;RP1=0, select bank0
  1774  02C3  00A2               	movwf	??_w_Titulos
  1775  02C4  0822               	movf	??_w_Titulos,w
  1776  02C5  00F5               	movwf	set_Cursor@pos
  1777  02C6  3001               	movlw	1
  1778  02C7  120A  118A  25B2  120A  118A  	fcall	_set_Cursor
  1779  02CC                     l1574:
  1780                           
  1781                           ;LCD.c: 92:     w_Char('V');
  1782  02CC  3056               	movlw	86
  1783  02CD  120A  118A  265A  120A  118A  	fcall	_w_Char
  1784  02D2                     l1576:
  1785                           
  1786                           ;LCD.c: 95:     set_Cursor(1,14);
  1787  02D2  300E               	movlw	14
  1788  02D3  1283               	bcf	3,5	;RP0=0, select bank0
  1789  02D4  1303               	bcf	3,6	;RP1=0, select bank0
  1790  02D5  00A2               	movwf	??_w_Titulos
  1791  02D6  0822               	movf	??_w_Titulos,w
  1792  02D7  00F5               	movwf	set_Cursor@pos
  1793  02D8  3001               	movlw	1
  1794  02D9  120A  118A  25B2  120A  118A  	fcall	_set_Cursor
  1795  02DE                     l1578:
  1796                           
  1797                           ;LCD.c: 96:     w_Char(11011111);
  1798  02DE  3027               	movlw	39
  1799  02DF  120A  118A  265A  120A  118A  	fcall	_w_Char
  1800  02E4                     l1580:
  1801                           
  1802                           ;LCD.c: 97:     set_Cursor(1,15);
  1803  02E4  300F               	movlw	15
  1804  02E5  1283               	bcf	3,5	;RP0=0, select bank0
  1805  02E6  1303               	bcf	3,6	;RP1=0, select bank0
  1806  02E7  00A2               	movwf	??_w_Titulos
  1807  02E8  0822               	movf	??_w_Titulos,w
  1808  02E9  00F5               	movwf	set_Cursor@pos
  1809  02EA  3001               	movlw	1
  1810  02EB  120A  118A  25B2  120A  118A  	fcall	_set_Cursor
  1811  02F0                     l1582:
  1812                           
  1813                           ;LCD.c: 98:     w_Char('C');
  1814  02F0  3043               	movlw	67
  1815  02F1  120A  118A  265A  120A  118A  	fcall	_w_Char
  1816  02F6                     l180:
  1817  02F6  0008               	return
  1818  02F7                     __end_of_w_Titulos:
  1819                           
  1820                           	psect	text2
  1821  0511                     __ptext2:	
  1822 ;; *************** function _w_String *****************
  1823 ;; Defined at:
  1824 ;;		line 63 in file "LCD.c"
  1825 ;; Parameters:    Size  Location     Type
  1826 ;;  data            1    wreg     PTR unsigned char 
  1827 ;;		 -> w_Titulos@title(16), 
  1828 ;; Auto vars:     Size  Location     Type
  1829 ;;  data            1    0[BANK0 ] PTR unsigned char 
  1830 ;;		 -> w_Titulos@title(16), 
  1831 ;;  i               1    1[BANK0 ] unsigned char 
  1832 ;; Return value:  Size  Location     Type
  1833 ;;                  1    wreg      void 
  1834 ;; Registers used:
  1835 ;;		wreg, fsr0l, fsr0h, status,2, status,0, pclath, cstack
  1836 ;; Tracked objects:
  1837 ;;		On entry : 0/0
  1838 ;;		On exit  : 0/0
  1839 ;;		Unchanged: 0/0
  1840 ;; Data sizes:     COMMON   BANK0   BANK1   BANK3   BANK2
  1841 ;;      Params:         0       0       0       0       0
  1842 ;;      Locals:         0       2       0       0       0
  1843 ;;      Temps:          2       0       0       0       0
  1844 ;;      Totals:         2       2       0       0       0
  1845 ;;Total ram usage:        4 bytes
  1846 ;; Hardware stack levels used: 1
  1847 ;; Hardware stack levels required when called: 3
  1848 ;; This function calls:
  1849 ;;		_strlen
  1850 ;;		_w_Char
  1851 ;; This function is called by:
  1852 ;;		_w_Titulos
  1853 ;; This function uses a non-reentrant model
  1854 ;;
  1855                           
  1856                           
  1857                           ;psect for function _w_String
  1858  0511                     _w_String:
  1859                           
  1860                           ;incstack = 0
  1861                           ; Regs used in _w_String: [wreg-fsr0h+status,2+status,0+pclath+cstack]
  1862                           ;w_String@data stored from wreg
  1863  0511  1283               	bcf	3,5	;RP0=0, select bank0
  1864  0512  1303               	bcf	3,6	;RP1=0, select bank0
  1865  0513  00A0               	movwf	w_String@data
  1866  0514                     l1336:
  1867                           
  1868                           ;LCD.c: 63: void w_String(unsigned char data[]);LCD.c: 64: {;LCD.c: 65:     for(uint8_t 
      +                          i=0; i<strlen(data); i++)
  1869  0514  01A1               	clrf	w_String@i
  1870  0515  2D28               	goto	l1342
  1871  0516                     l1338:
  1872                           
  1873                           ;LCD.c: 66:     {;LCD.c: 67:         w_Char(data[i]);
  1874  0516  0821               	movf	w_String@i,w
  1875  0517  0720               	addwf	w_String@data,w
  1876  0518  00F8               	movwf	??_w_String
  1877  0519  0878               	movf	??_w_String,w
  1878  051A  0084               	movwf	4
  1879  051B  1383               	bcf	3,7	;select IRP bank0
  1880  051C  0800               	movf	0,w
  1881  051D  120A  118A  265A  120A  118A  	fcall	_w_Char
  1882  0522                     l1340:
  1883                           
  1884                           ;LCD.c: 68:     }
  1885  0522  3001               	movlw	1
  1886  0523  00F8               	movwf	??_w_String
  1887  0524  0878               	movf	??_w_String,w
  1888  0525  1283               	bcf	3,5	;RP0=0, select bank0
  1889  0526  1303               	bcf	3,6	;RP1=0, select bank0
  1890  0527  07A1               	addwf	w_String@i,f
  1891  0528                     l1342:
  1892  0528  0820               	movf	w_String@data,w
  1893  0529  120A  118A  25D1  120A  118A  	fcall	_strlen
  1894  052E  1283               	bcf	3,5	;RP0=0, select bank0
  1895  052F  1303               	bcf	3,6	;RP1=0, select bank0
  1896  0530  0821               	movf	w_String@i,w
  1897  0531  00F8               	movwf	??_w_String
  1898  0532  01F9               	clrf	??_w_String+1
  1899  0533  0874               	movf	?_strlen+1,w
  1900  0534  0279               	subwf	??_w_String+1,w
  1901  0535  1D03               	skipz
  1902  0536  2D39               	goto	u485
  1903  0537  0873               	movf	?_strlen,w
  1904  0538  0278               	subwf	??_w_String,w
  1905  0539                     u485:
  1906  0539  1C03               	skipc
  1907  053A  2D3C               	goto	u481
  1908  053B  2D3D               	goto	u480
  1909  053C                     u481:
  1910  053C  2D16               	goto	l1338
  1911  053D                     u480:
  1912  053D                     l172:
  1913  053D  0008               	return
  1914  053E                     __end_of_w_String:
  1915                           
  1916                           	psect	text3
  1917  065A                     __ptext3:	
  1918 ;; *************** function _w_Char *****************
  1919 ;; Defined at:
  1920 ;;		line 55 in file "LCD.c"
  1921 ;; Parameters:    Size  Location     Type
  1922 ;;  data            1    wreg     unsigned char 
  1923 ;; Auto vars:     Size  Location     Type
  1924 ;;  data            1    4[COMMON] unsigned char 
  1925 ;; Return value:  Size  Location     Type
  1926 ;;                  1    wreg      void 
  1927 ;; Registers used:
  1928 ;;		wreg, status,2, status,0, pclath, cstack
  1929 ;; Tracked objects:
  1930 ;;		On entry : 0/0
  1931 ;;		On exit  : 0/0
  1932 ;;		Unchanged: 0/0
  1933 ;; Data sizes:     COMMON   BANK0   BANK1   BANK3   BANK2
  1934 ;;      Params:         0       0       0       0       0
  1935 ;;      Locals:         1       0       0       0       0
  1936 ;;      Temps:          0       0       0       0       0
  1937 ;;      Totals:         1       0       0       0       0
  1938 ;;Total ram usage:        1 bytes
  1939 ;; Hardware stack levels used: 1
  1940 ;; Hardware stack levels required when called: 2
  1941 ;; This function calls:
  1942 ;;		_pulse_E
  1943 ;; This function is called by:
  1944 ;;		_main
  1945 ;;		_w_String
  1946 ;;		_w_Titulos
  1947 ;; This function uses a non-reentrant model
  1948 ;;
  1949                           
  1950                           
  1951                           ;psect for function _w_Char
  1952  065A                     _w_Char:
  1953                           
  1954                           ;incstack = 0
  1955                           ; Regs used in _w_Char: [wreg+status,2+status,0+pclath+cstack]
  1956                           ;w_Char@data stored from wreg
  1957  065A  00F4               	movwf	w_Char@data
  1958  065B                     l1300:
  1959                           
  1960                           ;LCD.c: 55: void w_Char(unsigned char data);LCD.c: 56: {;LCD.c: 57:     PORTCbits.RC0 = 
      +                          1;
  1961  065B  1283               	bcf	3,5	;RP0=0, select bank0
  1962  065C  1303               	bcf	3,6	;RP1=0, select bank0
  1963  065D  1407               	bsf	7,0	;volatile
  1964  065E                     l1302:
  1965                           
  1966                           ;LCD.c: 58:     PORTA = data;
  1967  065E  0874               	movf	w_Char@data,w
  1968  065F  0085               	movwf	5	;volatile
  1969  0660                     l1304:
  1970                           
  1971                           ;LCD.c: 59:     pulse_E();
  1972  0660  120A  118A  2672  120A  118A  	fcall	_pulse_E
  1973  0665                     l166:
  1974  0665  0008               	return
  1975  0666                     __end_of_w_Char:
  1976                           
  1977                           	psect	text4
  1978  05B2                     __ptext4:	
  1979 ;; *************** function _set_Cursor *****************
  1980 ;; Defined at:
  1981 ;;		line 72 in file "LCD.c"
  1982 ;; Parameters:    Size  Location     Type
  1983 ;;  line            1    wreg     unsigned char 
  1984 ;;  pos             1    5[COMMON] unsigned char 
  1985 ;; Auto vars:     Size  Location     Type
  1986 ;;  line            1    8[COMMON] unsigned char 
  1987 ;;  direction       1    9[COMMON] unsigned char 
  1988 ;; Return value:  Size  Location     Type
  1989 ;;                  1    wreg      void 
  1990 ;; Registers used:
  1991 ;;		wreg, status,2, status,0, pclath, cstack
  1992 ;; Tracked objects:
  1993 ;;		On entry : 0/0
  1994 ;;		On exit  : 0/0
  1995 ;;		Unchanged: 0/0
  1996 ;; Data sizes:     COMMON   BANK0   BANK1   BANK3   BANK2
  1997 ;;      Params:         1       0       0       0       0
  1998 ;;      Locals:         2       0       0       0       0
  1999 ;;      Temps:          2       0       0       0       0
  2000 ;;      Totals:         5       0       0       0       0
  2001 ;;Total ram usage:        5 bytes
  2002 ;; Hardware stack levels used: 1
  2003 ;; Hardware stack levels required when called: 3
  2004 ;; This function calls:
  2005 ;;		_w_Instruction
  2006 ;; This function is called by:
  2007 ;;		_main
  2008 ;;		_w_Titulos
  2009 ;; This function uses a non-reentrant model
  2010 ;;
  2011                           
  2012                           
  2013                           ;psect for function _set_Cursor
  2014  05B2                     _set_Cursor:
  2015                           
  2016                           ;incstack = 0
  2017                           ; Regs used in _set_Cursor: [wreg+status,2+status,0+pclath+cstack]
  2018                           ;set_Cursor@line stored from wreg
  2019  05B2  00F8               	movwf	set_Cursor@line
  2020  05B3                     l1326:
  2021                           
  2022                           ;LCD.c: 72: void set_Cursor(uint8_t line, uint8_t pos);LCD.c: 73: {;LCD.c: 74:     uint8
      +                          _t direction = 0b10000000;
  2023  05B3  3080               	movlw	128
  2024  05B4  00F6               	movwf	??_set_Cursor
  2025  05B5  0876               	movf	??_set_Cursor,w
  2026  05B6  00F9               	movwf	set_Cursor@direction
  2027  05B7                     l1328:
  2028                           
  2029                           ;LCD.c: 75:     line = line<<6;
  2030  05B7  0878               	movf	set_Cursor@line,w
  2031  05B8  00F6               	movwf	??_set_Cursor
  2032  05B9  3005               	movlw	5
  2033  05BA                     u475:
  2034  05BA  1003               	clrc
  2035  05BB  0DF6               	rlf	??_set_Cursor,f
  2036  05BC  3EFF               	addlw	-1
  2037  05BD  1D03               	skipz
  2038  05BE  2DBA               	goto	u475
  2039  05BF  1003               	clrc
  2040  05C0  0D76               	rlf	??_set_Cursor,w
  2041  05C1  00F7               	movwf	??_set_Cursor+1
  2042  05C2  0877               	movf	??_set_Cursor+1,w
  2043  05C3  00F8               	movwf	set_Cursor@line
  2044  05C4                     l1330:
  2045                           
  2046                           ;LCD.c: 76:     direction = direction | line | pos;
  2047  05C4  0879               	movf	set_Cursor@direction,w
  2048  05C5  0478               	iorwf	set_Cursor@line,w
  2049  05C6  0475               	iorwf	set_Cursor@pos,w
  2050  05C7  00F6               	movwf	??_set_Cursor
  2051  05C8  0876               	movf	??_set_Cursor,w
  2052  05C9  00F9               	movwf	set_Cursor@direction
  2053  05CA                     l1332:
  2054                           
  2055                           ;LCD.c: 77:     w_Instruction(direction);
  2056  05CA  0879               	movf	set_Cursor@direction,w
  2057  05CB  120A  118A  2666  120A  118A  	fcall	_w_Instruction
  2058  05D0                     l175:
  2059  05D0  0008               	return
  2060  05D1                     __end_of_set_Cursor:
  2061                           
  2062                           	psect	text5
  2063  0689                     __ptext5:	
  2064 ;; *************** function _spi_Read *****************
  2065 ;; Defined at:
  2066 ;;		line 27 in file "SPI.c"
  2067 ;; Parameters:    Size  Location     Type
  2068 ;;		None
  2069 ;; Auto vars:     Size  Location     Type
  2070 ;;		None
  2071 ;; Return value:  Size  Location     Type
  2072 ;;                  1    wreg      unsigned char 
  2073 ;; Registers used:
  2074 ;;		wreg
  2075 ;; Tracked objects:
  2076 ;;		On entry : 0/0
  2077 ;;		On exit  : 0/0
  2078 ;;		Unchanged: 0/0
  2079 ;; Data sizes:     COMMON   BANK0   BANK1   BANK3   BANK2
  2080 ;;      Params:         0       0       0       0       0
  2081 ;;      Locals:         0       0       0       0       0
  2082 ;;      Temps:          0       0       0       0       0
  2083 ;;      Totals:         0       0       0       0       0
  2084 ;;Total ram usage:        0 bytes
  2085 ;; Hardware stack levels used: 1
  2086 ;; Hardware stack levels required when called: 1
  2087 ;; This function calls:
  2088 ;;		Nothing
  2089 ;; This function is called by:
  2090 ;;		_main
  2091 ;; This function uses a non-reentrant model
  2092 ;;
  2093                           
  2094                           
  2095                           ;psect for function _spi_Read
  2096  0689                     _spi_Read:
  2097  0689                     l1584:	
  2098                           ;incstack = 0
  2099                           ; Regs used in _spi_Read: [wreg]
  2100                           
  2101  0689                     l141:	
  2102                           ;SPI.c: 29:     while (!SSPSTATbits.BF);
  2103                           
  2104  0689  1683               	bsf	3,5	;RP0=1, select bank1
  2105  068A  1303               	bcf	3,6	;RP1=0, select bank1
  2106  068B  1C14               	btfss	20,0	;volatile
  2107  068C  2E8E               	goto	u861
  2108  068D  2E8F               	goto	u860
  2109  068E                     u861:
  2110  068E  2E89               	goto	l141
  2111  068F                     u860:
  2112  068F                     l1586:
  2113                           
  2114                           ;SPI.c: 30:     return SSPBUF;
  2115  068F  1283               	bcf	3,5	;RP0=0, select bank0
  2116  0690  1303               	bcf	3,6	;RP1=0, select bank0
  2117  0691  0813               	movf	19,w	;volatile
  2118  0692                     l144:
  2119  0692  0008               	return
  2120  0693                     __end_of_spi_Read:
  2121                           
  2122                           	psect	text6
  2123  067E                     __ptext6:	
  2124 ;; *************** function _spi_Master *****************
  2125 ;; Defined at:
  2126 ;;		line 3 in file "SPI.c"
  2127 ;; Parameters:    Size  Location     Type
  2128 ;;		None
  2129 ;; Auto vars:     Size  Location     Type
  2130 ;;		None
  2131 ;; Return value:  Size  Location     Type
  2132 ;;                  1    wreg      void 
  2133 ;; Registers used:
  2134 ;;		wreg, status,2, status,0
  2135 ;; Tracked objects:
  2136 ;;		On entry : 0/0
  2137 ;;		On exit  : 0/0
  2138 ;;		Unchanged: 0/0
  2139 ;; Data sizes:     COMMON   BANK0   BANK1   BANK3   BANK2
  2140 ;;      Params:         0       0       0       0       0
  2141 ;;      Locals:         0       0       0       0       0
  2142 ;;      Temps:          0       0       0       0       0
  2143 ;;      Totals:         0       0       0       0       0
  2144 ;;Total ram usage:        0 bytes
  2145 ;; Hardware stack levels used: 1
  2146 ;; Hardware stack levels required when called: 1
  2147 ;; This function calls:
  2148 ;;		Nothing
  2149 ;; This function is called by:
  2150 ;;		_main
  2151 ;; This function uses a non-reentrant model
  2152 ;;
  2153                           
  2154                           
  2155                           ;psect for function _spi_Master
  2156  067E                     _spi_Master:
  2157  067E                     l1502:	
  2158                           ;incstack = 0
  2159                           ; Regs used in _spi_Master: [wreg+status,2+status,0]
  2160                           
  2161                           
  2162                           ;SPI.c: 5:     SSPSTATbits.SMP = 1;
  2163  067E  1683               	bsf	3,5	;RP0=1, select bank1
  2164  067F  1303               	bcf	3,6	;RP1=0, select bank1
  2165  0680  1794               	bsf	20,7	;volatile
  2166                           
  2167                           ;SPI.c: 6:     SSPSTATbits.CKE = 0;
  2168  0681  1314               	bcf	20,6	;volatile
  2169                           
  2170                           ;SPI.c: 8:     SSPCONbits.SSPEN = 1;
  2171  0682  1283               	bcf	3,5	;RP0=0, select bank0
  2172  0683  1303               	bcf	3,6	;RP1=0, select bank0
  2173  0684  1694               	bsf	20,5	;volatile
  2174                           
  2175                           ;SPI.c: 9:     SSPCONbits.CKP = 0;
  2176  0685  1214               	bcf	20,4	;volatile
  2177  0686                     l1504:
  2178                           
  2179                           ;SPI.c: 10:     SSPCONbits.SSPM = 0b0000;
  2180  0686  30F0               	movlw	-16
  2181  0687  0594               	andwf	20,f	;volatile
  2182  0688                     l135:
  2183  0688  0008               	return
  2184  0689                     __end_of_spi_Master:
  2185                           
  2186                           	psect	text7
  2187  053E                     __ptext7:	
  2188 ;; *************** function _map *****************
  2189 ;; Defined at:
  2190 ;;		line 226 in file "D2_SPI_Master.c"
  2191 ;; Parameters:    Size  Location     Type
  2192 ;;  num             1    wreg     unsigned char 
  2193 ;; Auto vars:     Size  Location     Type
  2194 ;;  num             1   14[BANK0 ] unsigned char 
  2195 ;;  res             2   12[BANK0 ] unsigned int 
  2196 ;; Return value:  Size  Location     Type
  2197 ;;                  2    8[BANK0 ] unsigned int 
  2198 ;; Registers used:
  2199 ;;		wreg, status,2, status,0, pclath, cstack
  2200 ;; Tracked objects:
  2201 ;;		On entry : 0/0
  2202 ;;		On exit  : 0/0
  2203 ;;		Unchanged: 0/0
  2204 ;; Data sizes:     COMMON   BANK0   BANK1   BANK3   BANK2
  2205 ;;      Params:         0       2       0       0       0
  2206 ;;      Locals:         0       3       0       0       0
  2207 ;;      Temps:          0       2       0       0       0
  2208 ;;      Totals:         0       7       0       0       0
  2209 ;;Total ram usage:        7 bytes
  2210 ;; Hardware stack levels used: 1
  2211 ;; Hardware stack levels required when called: 2
  2212 ;; This function calls:
  2213 ;;		___awdiv
  2214 ;;		___wmul
  2215 ;; This function is called by:
  2216 ;;		_main
  2217 ;; This function uses a non-reentrant model
  2218 ;;
  2219                           
  2220                           
  2221                           ;psect for function _map
  2222  053E                     _map:
  2223                           
  2224                           ;incstack = 0
  2225                           ; Regs used in _map: [wreg+status,2+status,0+pclath+cstack]
  2226                           ;map@num stored from wreg
  2227  053E  1283               	bcf	3,5	;RP0=0, select bank0
  2228  053F  1303               	bcf	3,6	;RP1=0, select bank0
  2229  0540  00AE               	movwf	map@num
  2230  0541                     l1590:
  2231                           
  2232                           ;D2_SPI_Master.c: 226: uint16_t map(uint8_t num);D2_SPI_Master.c: 227: {;D2_SPI_Master.c
      +                          : 228:     uint16_t res;;D2_SPI_Master.c: 229:     res = num*100/51;
  2233  0541  3033               	movlw	51
  2234  0542  00A0               	movwf	___awdiv@divisor
  2235  0543  3000               	movlw	0
  2236  0544  00A1               	movwf	___awdiv@divisor+1
  2237  0545  082E               	movf	map@num,w
  2238  0546  00AA               	movwf	??_map
  2239  0547  01AB               	clrf	??_map+1
  2240  0548  082A               	movf	??_map,w
  2241  0549  00F3               	movwf	___wmul@multiplier
  2242  054A  082B               	movf	??_map+1,w
  2243  054B  00F4               	movwf	___wmul@multiplier+1
  2244  054C  3064               	movlw	100
  2245  054D  00F5               	movwf	___wmul@multiplicand
  2246  054E  3000               	movlw	0
  2247  054F  00F6               	movwf	___wmul@multiplicand+1
  2248  0550  120A  118A  256B  120A  118A  	fcall	___wmul
  2249  0555  0874               	movf	?___wmul+1,w
  2250  0556  1283               	bcf	3,5	;RP0=0, select bank0
  2251  0557  1303               	bcf	3,6	;RP1=0, select bank0
  2252  0558  00A3               	movwf	___awdiv@dividend+1
  2253  0559  0873               	movf	?___wmul,w
  2254  055A  00A2               	movwf	___awdiv@dividend
  2255  055B  120A  118A  22F7  120A  118A  	fcall	___awdiv
  2256  0560  1283               	bcf	3,5	;RP0=0, select bank0
  2257  0561  1303               	bcf	3,6	;RP1=0, select bank0
  2258  0562  0821               	movf	?___awdiv+1,w
  2259  0563  00AD               	movwf	map@res+1
  2260  0564  0820               	movf	?___awdiv,w
  2261  0565  00AC               	movwf	map@res
  2262  0566                     l1592:
  2263                           
  2264                           ;D2_SPI_Master.c: 230:     return res;
  2265  0566  082D               	movf	map@res+1,w
  2266  0567  00A9               	movwf	?_map+1
  2267  0568  082C               	movf	map@res,w
  2268  0569  00A8               	movwf	?_map
  2269  056A                     l119:
  2270  056A  0008               	return
  2271  056B                     __end_of_map:
  2272                           
  2273                           	psect	text8
  2274  056B                     __ptext8:	
  2275 ;; *************** function ___wmul *****************
  2276 ;; Defined at:
  2277 ;;		line 15 in file "C:\Program Files\Microchip\xc8\v2.32\pic\sources\c90\common\Umul16.c"
  2278 ;; Parameters:    Size  Location     Type
  2279 ;;  multiplier      2    3[COMMON] unsigned int 
  2280 ;;  multiplicand    2    5[COMMON] unsigned int 
  2281 ;; Auto vars:     Size  Location     Type
  2282 ;;  product         2    7[COMMON] unsigned int 
  2283 ;; Return value:  Size  Location     Type
  2284 ;;                  2    3[COMMON] unsigned int 
  2285 ;; Registers used:
  2286 ;;		wreg, status,2, status,0
  2287 ;; Tracked objects:
  2288 ;;		On entry : 0/0
  2289 ;;		On exit  : 0/0
  2290 ;;		Unchanged: 0/0
  2291 ;; Data sizes:     COMMON   BANK0   BANK1   BANK3   BANK2
  2292 ;;      Params:         4       0       0       0       0
  2293 ;;      Locals:         2       0       0       0       0
  2294 ;;      Temps:          0       0       0       0       0
  2295 ;;      Totals:         6       0       0       0       0
  2296 ;;Total ram usage:        6 bytes
  2297 ;; Hardware stack levels used: 1
  2298 ;; Hardware stack levels required when called: 1
  2299 ;; This function calls:
  2300 ;;		Nothing
  2301 ;; This function is called by:
  2302 ;;		_map
  2303 ;; This function uses a non-reentrant model
  2304 ;;
  2305                           
  2306                           
  2307                           ;psect for function ___wmul
  2308  056B                     ___wmul:
  2309  056B                     l1344:	
  2310                           ;incstack = 0
  2311                           ; Regs used in ___wmul: [wreg+status,2+status,0]
  2312                           
  2313  056B  01F7               	clrf	___wmul@product
  2314  056C  01F8               	clrf	___wmul@product+1
  2315  056D                     l1346:
  2316  056D  1C73               	btfss	___wmul@multiplier,0
  2317  056E  2D70               	goto	u491
  2318  056F  2D71               	goto	u490
  2319  0570                     u491:
  2320  0570  2D77               	goto	l294
  2321  0571                     u490:
  2322  0571                     l1348:
  2323  0571  0875               	movf	___wmul@multiplicand,w
  2324  0572  07F7               	addwf	___wmul@product,f
  2325  0573  1803               	skipnc
  2326  0574  0AF8               	incf	___wmul@product+1,f
  2327  0575  0876               	movf	___wmul@multiplicand+1,w
  2328  0576  07F8               	addwf	___wmul@product+1,f
  2329  0577                     l294:
  2330  0577  3001               	movlw	1
  2331  0578                     u505:
  2332  0578  1003               	clrc
  2333  0579  0DF5               	rlf	___wmul@multiplicand,f
  2334  057A  0DF6               	rlf	___wmul@multiplicand+1,f
  2335  057B  3EFF               	addlw	-1
  2336  057C  1D03               	skipz
  2337  057D  2D78               	goto	u505
  2338  057E                     l1350:
  2339  057E  3001               	movlw	1
  2340  057F                     u515:
  2341  057F  1003               	clrc
  2342  0580  0CF4               	rrf	___wmul@multiplier+1,f
  2343  0581  0CF3               	rrf	___wmul@multiplier,f
  2344  0582  3EFF               	addlw	-1
  2345  0583  1D03               	skipz
  2346  0584  2D7F               	goto	u515
  2347  0585                     l1352:
  2348  0585  0873               	movf	___wmul@multiplier,w
  2349  0586  0474               	iorwf	___wmul@multiplier+1,w
  2350  0587  1D03               	btfss	3,2
  2351  0588  2D8A               	goto	u521
  2352  0589  2D8B               	goto	u520
  2353  058A                     u521:
  2354  058A  2D6D               	goto	l1346
  2355  058B                     u520:
  2356  058B                     l1354:
  2357  058B  0878               	movf	___wmul@product+1,w
  2358  058C  00F4               	movwf	?___wmul+1
  2359  058D  0877               	movf	___wmul@product,w
  2360  058E  00F3               	movwf	?___wmul
  2361  058F                     l296:
  2362  058F  0008               	return
  2363  0590                     __end_of___wmul:
  2364                           
  2365                           	psect	text9
  2366  0417                     __ptext9:	
  2367 ;; *************** function _ini_LCD *****************
  2368 ;; Defined at:
  2369 ;;		line 26 in file "LCD.c"
  2370 ;; Parameters:    Size  Location     Type
  2371 ;;		None
  2372 ;; Auto vars:     Size  Location     Type
  2373 ;;		None
  2374 ;; Return value:  Size  Location     Type
  2375 ;;                  1    wreg      void 
  2376 ;; Registers used:
  2377 ;;		wreg, status,2, status,0, pclath, cstack
  2378 ;; Tracked objects:
  2379 ;;		On entry : 0/0
  2380 ;;		On exit  : 0/0
  2381 ;;		Unchanged: 0/0
  2382 ;; Data sizes:     COMMON   BANK0   BANK1   BANK3   BANK2
  2383 ;;      Params:         0       0       0       0       0
  2384 ;;      Locals:         0       0       0       0       0
  2385 ;;      Temps:          2       0       0       0       0
  2386 ;;      Totals:         2       0       0       0       0
  2387 ;;Total ram usage:        2 bytes
  2388 ;; Hardware stack levels used: 1
  2389 ;; Hardware stack levels required when called: 3
  2390 ;; This function calls:
  2391 ;;		_w_Instruction
  2392 ;; This function is called by:
  2393 ;;		_main
  2394 ;; This function uses a non-reentrant model
  2395 ;;
  2396                           
  2397                           
  2398                           ;psect for function _ini_LCD
  2399  0417                     _ini_LCD:
  2400  0417                     l1536:	
  2401                           ;incstack = 0
  2402                           ; Regs used in _ini_LCD: [wreg+status,2+status,0+pclath+cstack]
  2403                           
  2404                           
  2405                           ;LCD.c: 28:     PORTCbits.RC0 = 0;
  2406  0417  1283               	bcf	3,5	;RP0=0, select bank0
  2407  0418  1303               	bcf	3,6	;RP1=0, select bank0
  2408  0419  1007               	bcf	7,0	;volatile
  2409                           
  2410                           ;LCD.c: 29:     PORTCbits.RC1 = 0;
  2411  041A  1087               	bcf	7,1	;volatile
  2412  041B                     l1538:
  2413                           
  2414                           ;LCD.c: 30:     PORTA = 0;
  2415  041B  0185               	clrf	5	;volatile
  2416  041C                     l1540:
  2417                           
  2418                           ;LCD.c: 32:     _delay((unsigned long)((16)*(4000000/4000.0)));
  2419  041C  3015               	movlw	21
  2420  041D  00F6               	movwf	??_ini_LCD+1
  2421  041E  30C6               	movlw	198
  2422  041F  00F5               	movwf	??_ini_LCD
  2423  0420                     u1007:
  2424  0420  0BF5               	decfsz	??_ini_LCD,f
  2425  0421  2C20               	goto	u1007
  2426  0422  0BF6               	decfsz	??_ini_LCD+1,f
  2427  0423  2C20               	goto	u1007
  2428  0424  0000               	nop
  2429  0425                     l1542:
  2430                           
  2431                           ;LCD.c: 33:     w_Instruction(0b00110000);
  2432  0425  3030               	movlw	48
  2433  0426  120A  118A  2666  120A  118A  	fcall	_w_Instruction
  2434  042B                     l1544:
  2435                           
  2436                           ;LCD.c: 34:     _delay((unsigned long)((5)*(4000000/4000.0)));
  2437  042B  3007               	movlw	7
  2438  042C  00F6               	movwf	??_ini_LCD+1
  2439  042D  307D               	movlw	125
  2440  042E  00F5               	movwf	??_ini_LCD
  2441  042F                     u1017:
  2442  042F  0BF5               	decfsz	??_ini_LCD,f
  2443  0430  2C2F               	goto	u1017
  2444  0431  0BF6               	decfsz	??_ini_LCD+1,f
  2445  0432  2C2F               	goto	u1017
  2446  0433                     l1546:
  2447                           
  2448                           ;LCD.c: 35:     w_Instruction(0b00110000);
  2449  0433  3030               	movlw	48
  2450  0434  120A  118A  2666  120A  118A  	fcall	_w_Instruction
  2451  0439                     l1548:
  2452                           
  2453                           ;LCD.c: 36:     _delay((unsigned long)((200)*(4000000/4000000.0)));
  2454  0439  3042               	movlw	66
  2455  043A  00F5               	movwf	??_ini_LCD
  2456  043B                     u1027:
  2457  043B  0BF5               	decfsz	??_ini_LCD,f
  2458  043C  2C3B               	goto	u1027
  2459  043D  0000               	nop
  2460  043E                     l1550:
  2461                           
  2462                           ;LCD.c: 37:     w_Instruction(0b00110000);
  2463  043E  3030               	movlw	48
  2464  043F  120A  118A  2666  120A  118A  	fcall	_w_Instruction
  2465  0444                     l1552:
  2466                           
  2467                           ;LCD.c: 39:     _delay((unsigned long)((4)*(4000000/4000.0)));
  2468  0444  3006               	movlw	6
  2469  0445  00F6               	movwf	??_ini_LCD+1
  2470  0446  3030               	movlw	48
  2471  0447  00F5               	movwf	??_ini_LCD
  2472  0448                     u1037:
  2473  0448  0BF5               	decfsz	??_ini_LCD,f
  2474  0449  2C48               	goto	u1037
  2475  044A  0BF6               	decfsz	??_ini_LCD+1,f
  2476  044B  2C48               	goto	u1037
  2477  044C  0000               	nop
  2478  044D                     l1554:
  2479                           
  2480                           ;LCD.c: 40:     w_Instruction(0b00111000);
  2481  044D  3038               	movlw	56
  2482  044E  120A  118A  2666  120A  118A  	fcall	_w_Instruction
  2483  0453                     l1556:
  2484                           
  2485                           ;LCD.c: 42:     _delay((unsigned long)((4)*(4000000/4000.0)));
  2486  0453  3006               	movlw	6
  2487  0454  00F6               	movwf	??_ini_LCD+1
  2488  0455  3030               	movlw	48
  2489  0456  00F5               	movwf	??_ini_LCD
  2490  0457                     u1047:
  2491  0457  0BF5               	decfsz	??_ini_LCD,f
  2492  0458  2C57               	goto	u1047
  2493  0459  0BF6               	decfsz	??_ini_LCD+1,f
  2494  045A  2C57               	goto	u1047
  2495  045B  0000               	nop
  2496  045C                     l1558:
  2497                           
  2498                           ;LCD.c: 43:     w_Instruction(0b00001100);
  2499  045C  300C               	movlw	12
  2500  045D  120A  118A  2666  120A  118A  	fcall	_w_Instruction
  2501  0462                     l160:
  2502  0462  0008               	return
  2503  0463                     __end_of_ini_LCD:
  2504                           
  2505                           	psect	text10
  2506  0666                     __ptext10:	
  2507 ;; *************** function _w_Instruction *****************
  2508 ;; Defined at:
  2509 ;;		line 47 in file "LCD.c"
  2510 ;; Parameters:    Size  Location     Type
  2511 ;;  instruction     1    wreg     unsigned char 
  2512 ;; Auto vars:     Size  Location     Type
  2513 ;;  instruction     1    4[COMMON] unsigned char 
  2514 ;; Return value:  Size  Location     Type
  2515 ;;                  1    wreg      void 
  2516 ;; Registers used:
  2517 ;;		wreg, status,2, status,0, pclath, cstack
  2518 ;; Tracked objects:
  2519 ;;		On entry : 0/0
  2520 ;;		On exit  : 0/0
  2521 ;;		Unchanged: 0/0
  2522 ;; Data sizes:     COMMON   BANK0   BANK1   BANK3   BANK2
  2523 ;;      Params:         0       0       0       0       0
  2524 ;;      Locals:         1       0       0       0       0
  2525 ;;      Temps:          0       0       0       0       0
  2526 ;;      Totals:         1       0       0       0       0
  2527 ;;Total ram usage:        1 bytes
  2528 ;; Hardware stack levels used: 1
  2529 ;; Hardware stack levels required when called: 2
  2530 ;; This function calls:
  2531 ;;		_pulse_E
  2532 ;; This function is called by:
  2533 ;;		_ini_LCD
  2534 ;;		_set_Cursor
  2535 ;; This function uses a non-reentrant model
  2536 ;;
  2537                           
  2538                           
  2539                           ;psect for function _w_Instruction
  2540  0666                     _w_Instruction:
  2541                           
  2542                           ;incstack = 0
  2543                           ; Regs used in _w_Instruction: [wreg+status,2+status,0+pclath+cstack]
  2544                           ;w_Instruction@instruction stored from wreg
  2545  0666  00F4               	movwf	w_Instruction@instruction
  2546  0667                     l1308:
  2547                           
  2548                           ;LCD.c: 47: void w_Instruction(uint8_t instruction);LCD.c: 48: {;LCD.c: 49:     PORTCbit
      +                          s.RC0 = 0;
  2549  0667  1283               	bcf	3,5	;RP0=0, select bank0
  2550  0668  1303               	bcf	3,6	;RP1=0, select bank0
  2551  0669  1007               	bcf	7,0	;volatile
  2552  066A                     l1310:
  2553                           
  2554                           ;LCD.c: 50:     PORTA = instruction;
  2555  066A  0874               	movf	w_Instruction@instruction,w
  2556  066B  0085               	movwf	5	;volatile
  2557  066C                     l1312:
  2558                           
  2559                           ;LCD.c: 51:     pulse_E();
  2560  066C  120A  118A  2672  120A  118A  	fcall	_pulse_E
  2561  0671                     l163:
  2562  0671  0008               	return
  2563  0672                     __end_of_w_Instruction:
  2564                           
  2565                           	psect	text11
  2566  0672                     __ptext11:	
  2567 ;; *************** function _pulse_E *****************
  2568 ;; Defined at:
  2569 ;;		line 18 in file "LCD.c"
  2570 ;; Parameters:    Size  Location     Type
  2571 ;;		None
  2572 ;; Auto vars:     Size  Location     Type
  2573 ;;		None
  2574 ;; Return value:  Size  Location     Type
  2575 ;;                  1    wreg      void 
  2576 ;; Registers used:
  2577 ;;		wreg
  2578 ;; Tracked objects:
  2579 ;;		On entry : 0/0
  2580 ;;		On exit  : 0/0
  2581 ;;		Unchanged: 0/0
  2582 ;; Data sizes:     COMMON   BANK0   BANK1   BANK3   BANK2
  2583 ;;      Params:         0       0       0       0       0
  2584 ;;      Locals:         0       0       0       0       0
  2585 ;;      Temps:          1       0       0       0       0
  2586 ;;      Totals:         1       0       0       0       0
  2587 ;;Total ram usage:        1 bytes
  2588 ;; Hardware stack levels used: 1
  2589 ;; Hardware stack levels required when called: 1
  2590 ;; This function calls:
  2591 ;;		Nothing
  2592 ;; This function is called by:
  2593 ;;		_w_Instruction
  2594 ;;		_w_Char
  2595 ;; This function uses a non-reentrant model
  2596 ;;
  2597                           
  2598                           
  2599                           ;psect for function _pulse_E
  2600  0672                     _pulse_E:
  2601  0672                     l1292:	
  2602                           ;incstack = 0
  2603                           ; Regs used in _pulse_E: [wreg]
  2604                           
  2605                           
  2606                           ;LCD.c: 20:     PORTCbits.RC1 = 1;
  2607  0672  1283               	bcf	3,5	;RP0=0, select bank0
  2608  0673  1303               	bcf	3,6	;RP1=0, select bank0
  2609  0674  1487               	bsf	7,1	;volatile
  2610  0675                     l1294:
  2611                           
  2612                           ;LCD.c: 21:     _delay((unsigned long)((0.5)*(4000000/4000.0)));
  2613  0675  30A6               	movlw	166
  2614  0676  00F3               	movwf	??_pulse_E
  2615  0677                     u1057:
  2616  0677  0BF3               	decfsz	??_pulse_E,f
  2617  0678  2E77               	goto	u1057
  2618  0679  0000               	nop
  2619  067A                     l1296:
  2620                           
  2621                           ;LCD.c: 22:     PORTCbits.RC1 = 0;
  2622  067A  1283               	bcf	3,5	;RP0=0, select bank0
  2623  067B  1303               	bcf	3,6	;RP1=0, select bank0
  2624  067C  1087               	bcf	7,1	;volatile
  2625  067D                     l157:
  2626  067D  0008               	return
  2627  067E                     __end_of_pulse_E:
  2628                           
  2629                           	psect	text12
  2630  04E1                     __ptext12:	
  2631 ;; *************** function _enviar_string *****************
  2632 ;; Defined at:
  2633 ;;		line 25 in file "UART.c"
  2634 ;; Parameters:    Size  Location     Type
  2635 ;;  dato            1    wreg     PTR unsigned char 
  2636 ;;		 -> txt_temp(9), txt_cont(9), txt_pot(5), main@temp_string(4), 
  2637 ;;		 -> main@cont_string(4), main@pot_string(5), 
  2638 ;; Auto vars:     Size  Location     Type
  2639 ;;  dato            1    2[BANK0 ] PTR unsigned char 
  2640 ;;		 -> txt_temp(9), txt_cont(9), txt_pot(5), main@temp_string(4), 
  2641 ;;		 -> main@cont_string(4), main@pot_string(5), 
  2642 ;;  i               2    0[BANK0 ] int 
  2643 ;; Return value:  Size  Location     Type
  2644 ;;                  1    wreg      void 
  2645 ;; Registers used:
  2646 ;;		wreg, fsr0l, fsr0h, status,2, status,0, pclath, cstack
  2647 ;; Tracked objects:
  2648 ;;		On entry : 0/0
  2649 ;;		On exit  : 0/0
  2650 ;;		Unchanged: 0/0
  2651 ;; Data sizes:     COMMON   BANK0   BANK1   BANK3   BANK2
  2652 ;;      Params:         0       0       0       0       0
  2653 ;;      Locals:         0       3       0       0       0
  2654 ;;      Temps:          1       0       0       0       0
  2655 ;;      Totals:         1       3       0       0       0
  2656 ;;Total ram usage:        4 bytes
  2657 ;; Hardware stack levels used: 1
  2658 ;; Hardware stack levels required when called: 2
  2659 ;; This function calls:
  2660 ;;		_strlen
  2661 ;; This function is called by:
  2662 ;;		_main
  2663 ;; This function uses a non-reentrant model
  2664 ;;
  2665                           
  2666                           
  2667                           ;psect for function _enviar_string
  2668  04E1                     _enviar_string:
  2669                           
  2670                           ;incstack = 0
  2671                           ; Regs used in _enviar_string: [wreg-fsr0h+status,2+status,0+pclath+cstack]
  2672                           ;enviar_string@dato stored from wreg
  2673  04E1  1283               	bcf	3,5	;RP0=0, select bank0
  2674  04E2  1303               	bcf	3,6	;RP1=0, select bank0
  2675  04E3  00A2               	movwf	enviar_string@dato
  2676  04E4                     l1606:
  2677                           
  2678                           ;UART.c: 25: void enviar_string(char dato[]);UART.c: 26: {;UART.c: 27:     for(int i = 0
      +                          ; i<strlen(dato); i++)
  2679  04E4  01A0               	clrf	enviar_string@i
  2680  04E5  01A1               	clrf	enviar_string@i+1
  2681  04E6  2CFE               	goto	l1614
  2682  04E7                     l1608:
  2683                           
  2684                           ;UART.c: 28:     {;UART.c: 29:         TXREG = dato[i];
  2685  04E7  0820               	movf	enviar_string@i,w
  2686  04E8  0722               	addwf	enviar_string@dato,w
  2687  04E9  00F8               	movwf	??_enviar_string
  2688  04EA  0878               	movf	??_enviar_string,w
  2689  04EB  0084               	movwf	4
  2690  04EC  1383               	bcf	3,7	;select IRP bank0
  2691  04ED  0800               	movf	0,w
  2692  04EE  0099               	movwf	25	;volatile
  2693  04EF                     l1610:
  2694                           
  2695                           ;UART.c: 30:         _delay((unsigned long)((1)*(4000000/4000.0)));
  2696  04EF  30C7               	movlw	199
  2697  04F0  00F8               	movwf	??_enviar_string
  2698  04F1                     u1067:
  2699  04F1  2CF2               	nop2
  2700  04F2  0BF8               	decfsz	??_enviar_string,f
  2701  04F3  2CF1               	goto	u1067
  2702  04F4  2CF5               	nop2
  2703  04F5  2CF6               	nop2
  2704  04F6                     l1612:
  2705                           
  2706                           ;UART.c: 31:     }
  2707  04F6  3001               	movlw	1
  2708  04F7  1283               	bcf	3,5	;RP0=0, select bank0
  2709  04F8  1303               	bcf	3,6	;RP1=0, select bank0
  2710  04F9  07A0               	addwf	enviar_string@i,f
  2711  04FA  1803               	skipnc
  2712  04FB  0AA1               	incf	enviar_string@i+1,f
  2713  04FC  3000               	movlw	0
  2714  04FD  07A1               	addwf	enviar_string@i+1,f
  2715  04FE                     l1614:
  2716  04FE  0822               	movf	enviar_string@dato,w
  2717  04FF  120A  118A  25D1  120A  118A  	fcall	_strlen
  2718  0504  0874               	movf	?_strlen+1,w
  2719  0505  1283               	bcf	3,5	;RP0=0, select bank0
  2720  0506  1303               	bcf	3,6	;RP1=0, select bank0
  2721  0507  0221               	subwf	enviar_string@i+1,w
  2722  0508  1D03               	skipz
  2723  0509  2D0C               	goto	u875
  2724  050A  0873               	movf	?_strlen,w
  2725  050B  0220               	subwf	enviar_string@i,w
  2726  050C                     u875:
  2727  050C  1C03               	skipc
  2728  050D  2D0F               	goto	u871
  2729  050E  2D10               	goto	u870
  2730  050F                     u871:
  2731  050F  2CE7               	goto	l1608
  2732  0510                     u870:
  2733  0510                     l208:
  2734  0510  0008               	return
  2735  0511                     __end_of_enviar_string:
  2736                           
  2737                           	psect	text13
  2738  05D1                     __ptext13:	
  2739 ;; *************** function _strlen *****************
  2740 ;; Defined at:
  2741 ;;		line 4 in file "C:\Program Files\Microchip\xc8\v2.32\pic\sources\c90\common\strlen.c"
  2742 ;; Parameters:    Size  Location     Type
  2743 ;;  s               1    wreg     PTR const unsigned char 
  2744 ;;		 -> w_Titulos@title(16), txt_temp(9), txt_cont(9), txt_pot(5), 
  2745 ;;		 -> main@temp_string(4), main@cont_string(4), main@pot_string(5), 
  2746 ;; Auto vars:     Size  Location     Type
  2747 ;;  s               1    7[COMMON] PTR const unsigned char 
  2748 ;;		 -> w_Titulos@title(16), txt_temp(9), txt_cont(9), txt_pot(5), 
  2749 ;;		 -> main@temp_string(4), main@cont_string(4), main@pot_string(5), 
  2750 ;;  cp              1    6[COMMON] PTR const unsigned char 
  2751 ;;		 -> w_Titulos@title(16), txt_temp(9), txt_cont(9), txt_pot(5), 
  2752 ;;		 -> main@temp_string(4), main@cont_string(4), main@pot_string(5), 
  2753 ;; Return value:  Size  Location     Type
  2754 ;;                  2    3[COMMON] unsigned int 
  2755 ;; Registers used:
  2756 ;;		wreg, fsr0l, fsr0h, status,2, status,0
  2757 ;; Tracked objects:
  2758 ;;		On entry : 0/0
  2759 ;;		On exit  : 0/0
  2760 ;;		Unchanged: 0/0
  2761 ;; Data sizes:     COMMON   BANK0   BANK1   BANK3   BANK2
  2762 ;;      Params:         2       0       0       0       0
  2763 ;;      Locals:         2       0       0       0       0
  2764 ;;      Temps:          1       0       0       0       0
  2765 ;;      Totals:         5       0       0       0       0
  2766 ;;Total ram usage:        5 bytes
  2767 ;; Hardware stack levels used: 1
  2768 ;; Hardware stack levels required when called: 1
  2769 ;; This function calls:
  2770 ;;		Nothing
  2771 ;; This function is called by:
  2772 ;;		_w_String
  2773 ;;		_enviar_string
  2774 ;; This function uses a non-reentrant model
  2775 ;;
  2776                           
  2777                           
  2778                           ;psect for function _strlen
  2779  05D1                     _strlen:
  2780                           
  2781                           ;incstack = 0
  2782                           ; Regs used in _strlen: [wreg-fsr0h+status,2+status,0]
  2783                           ;strlen@s stored from wreg
  2784  05D1  00F7               	movwf	strlen@s
  2785  05D2                     l1316:
  2786  05D2  0877               	movf	strlen@s,w
  2787  05D3  00F5               	movwf	??_strlen
  2788  05D4  0875               	movf	??_strlen,w
  2789  05D5  00F6               	movwf	strlen@cp
  2790  05D6  2DDB               	goto	l1320
  2791  05D7                     l1318:
  2792  05D7  3001               	movlw	1
  2793  05D8  00F5               	movwf	??_strlen
  2794  05D9  0875               	movf	??_strlen,w
  2795  05DA  07F6               	addwf	strlen@cp,f
  2796  05DB                     l1320:
  2797  05DB  0876               	movf	strlen@cp,w
  2798  05DC  0084               	movwf	4
  2799  05DD  1383               	bcf	3,7	;select IRP bank0
  2800  05DE  0800               	movf	0,w
  2801  05DF  1D03               	btfss	3,2
  2802  05E0  2DE2               	goto	u461
  2803  05E1  2DE3               	goto	u460
  2804  05E2                     u461:
  2805  05E2  2DD7               	goto	l1318
  2806  05E3                     u460:
  2807  05E3                     l1322:
  2808  05E3  0877               	movf	strlen@s,w
  2809  05E4  0276               	subwf	strlen@cp,w
  2810  05E5  00F3               	movwf	?_strlen
  2811  05E6  01F4               	clrf	?_strlen+1
  2812  05E7  1BF3               	btfsc	?_strlen,7
  2813  05E8  03F4               	decf	?_strlen+1,f
  2814  05E9                     l748:
  2815  05E9  0008               	return
  2816  05EA                     __end_of_strlen:
  2817                           
  2818                           	psect	text14
  2819  064D                     __ptext14:	
  2820 ;; *************** function _enviar_char *****************
  2821 ;; Defined at:
  2822 ;;		line 18 in file "UART.c"
  2823 ;; Parameters:    Size  Location     Type
  2824 ;;  dato            1    wreg     unsigned char 
  2825 ;; Auto vars:     Size  Location     Type
  2826 ;;  dato            1    4[COMMON] unsigned char 
  2827 ;; Return value:  Size  Location     Type
  2828 ;;                  1    wreg      void 
  2829 ;; Registers used:
  2830 ;;		wreg
  2831 ;; Tracked objects:
  2832 ;;		On entry : 0/0
  2833 ;;		On exit  : 0/0
  2834 ;;		Unchanged: 0/0
  2835 ;; Data sizes:     COMMON   BANK0   BANK1   BANK3   BANK2
  2836 ;;      Params:         0       0       0       0       0
  2837 ;;      Locals:         1       0       0       0       0
  2838 ;;      Temps:          1       0       0       0       0
  2839 ;;      Totals:         2       0       0       0       0
  2840 ;;Total ram usage:        2 bytes
  2841 ;; Hardware stack levels used: 1
  2842 ;; Hardware stack levels required when called: 1
  2843 ;; This function calls:
  2844 ;;		Nothing
  2845 ;; This function is called by:
  2846 ;;		_main
  2847 ;; This function uses a non-reentrant model
  2848 ;;
  2849                           
  2850                           
  2851                           ;psect for function _enviar_char
  2852  064D                     _enviar_char:
  2853                           
  2854                           ;incstack = 0
  2855                           ; Regs used in _enviar_char: [wreg]
  2856                           ;enviar_char@dato stored from wreg
  2857  064D  00F4               	movwf	enviar_char@dato
  2858  064E                     l1616:
  2859                           
  2860                           ;UART.c: 18: void enviar_char(char dato);UART.c: 19: {;UART.c: 20:     TXREG = dato;
  2861  064E  0874               	movf	enviar_char@dato,w
  2862  064F  1283               	bcf	3,5	;RP0=0, select bank0
  2863  0650  1303               	bcf	3,6	;RP1=0, select bank0
  2864  0651  0099               	movwf	25	;volatile
  2865                           
  2866                           ;UART.c: 21:     _delay((unsigned long)((1)*(4000000/4000.0)));
  2867  0652  30C7               	movlw	199
  2868  0653  00F3               	movwf	??_enviar_char
  2869  0654                     u1077:
  2870  0654  2E55               	nop2
  2871  0655  0BF3               	decfsz	??_enviar_char,f
  2872  0656  2E54               	goto	u1077
  2873  0657  2E58               	nop2
  2874  0658  2E59               	nop2
  2875  0659                     l202:
  2876  0659  0008               	return
  2877  065A                     __end_of_enviar_char:
  2878                           
  2879                           	psect	text15
  2880  0360                     __ptext15:	
  2881 ;; *************** function _divisor *****************
  2882 ;; Defined at:
  2883 ;;		line 233 in file "D2_SPI_Master.c"
  2884 ;; Parameters:    Size  Location     Type
  2885 ;;  num             2    8[BANK0 ] unsigned int 
  2886 ;;  centena         1   10[BANK0 ] PTR unsigned char 
  2887 ;;		 -> temp(6), cont(6), pot(6), 
  2888 ;;  decena          1   11[BANK0 ] PTR unsigned char 
  2889 ;;		 -> temp(6), cont(6), pot(6), 
  2890 ;;  unidad          1   12[BANK0 ] PTR unsigned char 
  2891 ;;		 -> temp(6), cont(6), pot(6), 
  2892 ;; Auto vars:     Size  Location     Type
  2893 ;;  aux             1   16[BANK0 ] unsigned char 
  2894 ;; Return value:  Size  Location     Type
  2895 ;;                  1    wreg      void 
  2896 ;; Registers used:
  2897 ;;		wreg, fsr0l, fsr0h, status,2, status,0, pclath, cstack
  2898 ;; Tracked objects:
  2899 ;;		On entry : 0/0
  2900 ;;		On exit  : 0/0
  2901 ;;		Unchanged: 0/0
  2902 ;; Data sizes:     COMMON   BANK0   BANK1   BANK3   BANK2
  2903 ;;      Params:         0       5       0       0       0
  2904 ;;      Locals:         0       1       0       0       0
  2905 ;;      Temps:          0       3       0       0       0
  2906 ;;      Totals:         0       9       0       0       0
  2907 ;;Total ram usage:        9 bytes
  2908 ;; Hardware stack levels used: 1
  2909 ;; Hardware stack levels required when called: 2
  2910 ;; This function calls:
  2911 ;;		___awdiv
  2912 ;;		___awmod
  2913 ;;		___lwdiv
  2914 ;;		___lwmod
  2915 ;; This function is called by:
  2916 ;;		_main
  2917 ;; This function uses a non-reentrant model
  2918 ;;
  2919                           
  2920                           
  2921                           ;psect for function _divisor
  2922  0360                     _divisor:
  2923  0360                     l1596:	
  2924                           ;incstack = 0
  2925                           ; Regs used in _divisor: [wreg-fsr0h+status,2+status,0+pclath+cstack]
  2926                           
  2927                           
  2928                           ;D2_SPI_Master.c: 233: void divisor(uint16_t num, uint8_t *centena, uint8_t *decena, uin
      +                          t8_t *unidad);D2_SPI_Master.c: 234: {;D2_SPI_Master.c: 235:     *centena = num / 100;
  2929  0360  3064               	movlw	100
  2930  0361  00F3               	movwf	___lwdiv@divisor
  2931  0362  3000               	movlw	0
  2932  0363  00F4               	movwf	___lwdiv@divisor+1
  2933  0364  1283               	bcf	3,5	;RP0=0, select bank0
  2934  0365  1303               	bcf	3,6	;RP1=0, select bank0
  2935  0366  0829               	movf	divisor@num+1,w
  2936  0367  00F6               	movwf	___lwdiv@dividend+1
  2937  0368  0828               	movf	divisor@num,w
  2938  0369  00F5               	movwf	___lwdiv@dividend
  2939  036A  120A  118A  2463  120A  118A  	fcall	___lwdiv
  2940  036F  0873               	movf	?___lwdiv,w
  2941  0370  1283               	bcf	3,5	;RP0=0, select bank0
  2942  0371  1303               	bcf	3,6	;RP1=0, select bank0
  2943  0372  00AD               	movwf	??_divisor
  2944  0373  082A               	movf	divisor@centena,w
  2945  0374  0084               	movwf	4
  2946  0375  082D               	movf	??_divisor,w
  2947  0376  1383               	bcf	3,7	;select IRP bank0
  2948  0377  0080               	movwf	0
  2949  0378                     l1598:
  2950                           
  2951                           ;D2_SPI_Master.c: 236:     uint8_t aux = num % 100;
  2952  0378  3064               	movlw	100
  2953  0379  00F3               	movwf	___lwmod@divisor
  2954  037A  3000               	movlw	0
  2955  037B  00F4               	movwf	___lwmod@divisor+1
  2956  037C  0829               	movf	divisor@num+1,w
  2957  037D  00F6               	movwf	___lwmod@dividend+1
  2958  037E  0828               	movf	divisor@num,w
  2959  037F  00F5               	movwf	___lwmod@dividend
  2960  0380  120A  118A  24A7  120A  118A  	fcall	___lwmod
  2961  0385  0873               	movf	?___lwmod,w
  2962  0386  1283               	bcf	3,5	;RP0=0, select bank0
  2963  0387  1303               	bcf	3,6	;RP1=0, select bank0
  2964  0388  00AD               	movwf	??_divisor
  2965  0389  082D               	movf	??_divisor,w
  2966  038A  00B0               	movwf	divisor@aux
  2967  038B                     l1600:
  2968                           
  2969                           ;D2_SPI_Master.c: 237:     *decena = aux / 10;
  2970  038B  300A               	movlw	10
  2971  038C  00A0               	movwf	___awdiv@divisor
  2972  038D  3000               	movlw	0
  2973  038E  00A1               	movwf	___awdiv@divisor+1
  2974  038F  0830               	movf	divisor@aux,w
  2975  0390  00AD               	movwf	??_divisor
  2976  0391  01AE               	clrf	??_divisor+1
  2977  0392  082D               	movf	??_divisor,w
  2978  0393  00A2               	movwf	___awdiv@dividend
  2979  0394  082E               	movf	??_divisor+1,w
  2980  0395  00A3               	movwf	___awdiv@dividend+1
  2981  0396  120A  118A  22F7  120A  118A  	fcall	___awdiv
  2982  039B  1283               	bcf	3,5	;RP0=0, select bank0
  2983  039C  1303               	bcf	3,6	;RP1=0, select bank0
  2984  039D  0820               	movf	?___awdiv,w
  2985  039E  00AF               	movwf	??_divisor+2
  2986  039F  082B               	movf	divisor@decena,w
  2987  03A0  0084               	movwf	4
  2988  03A1  082F               	movf	??_divisor+2,w
  2989  03A2  1383               	bcf	3,7	;select IRP bank0
  2990  03A3  0080               	movwf	0
  2991  03A4                     l1602:
  2992                           
  2993                           ;D2_SPI_Master.c: 238:     *unidad = aux % 10;
  2994  03A4  300A               	movlw	10
  2995  03A5  00F3               	movwf	___awmod@divisor
  2996  03A6  3000               	movlw	0
  2997  03A7  00F4               	movwf	___awmod@divisor+1
  2998  03A8  0830               	movf	divisor@aux,w
  2999  03A9  00AD               	movwf	??_divisor
  3000  03AA  01AE               	clrf	??_divisor+1
  3001  03AB  082D               	movf	??_divisor,w
  3002  03AC  00F5               	movwf	___awmod@dividend
  3003  03AD  082E               	movf	??_divisor+1,w
  3004  03AE  00F6               	movwf	___awmod@dividend+1
  3005  03AF  120A  118A  23BE  120A  118A  	fcall	___awmod
  3006  03B4  0873               	movf	?___awmod,w
  3007  03B5  1283               	bcf	3,5	;RP0=0, select bank0
  3008  03B6  1303               	bcf	3,6	;RP1=0, select bank0
  3009  03B7  00AF               	movwf	??_divisor+2
  3010  03B8  082C               	movf	divisor@unidad,w
  3011  03B9  0084               	movwf	4
  3012  03BA  082F               	movf	??_divisor+2,w
  3013  03BB  1383               	bcf	3,7	;select IRP bank0
  3014  03BC  0080               	movwf	0
  3015  03BD                     l122:
  3016  03BD  0008               	return
  3017  03BE                     __end_of_divisor:
  3018                           
  3019                           	psect	text16
  3020  04A7                     __ptext16:	
  3021 ;; *************** function ___lwmod *****************
  3022 ;; Defined at:
  3023 ;;		line 5 in file "C:\Program Files\Microchip\xc8\v2.32\pic\sources\c90\common\lwmod.c"
  3024 ;; Parameters:    Size  Location     Type
  3025 ;;  divisor         2    3[COMMON] unsigned int 
  3026 ;;  dividend        2    5[COMMON] unsigned int 
  3027 ;; Auto vars:     Size  Location     Type
  3028 ;;  counter         1    8[COMMON] unsigned char 
  3029 ;; Return value:  Size  Location     Type
  3030 ;;                  2    3[COMMON] unsigned int 
  3031 ;; Registers used:
  3032 ;;		wreg, status,2, status,0
  3033 ;; Tracked objects:
  3034 ;;		On entry : 0/0
  3035 ;;		On exit  : 0/0
  3036 ;;		Unchanged: 0/0
  3037 ;; Data sizes:     COMMON   BANK0   BANK1   BANK3   BANK2
  3038 ;;      Params:         4       0       0       0       0
  3039 ;;      Locals:         1       0       0       0       0
  3040 ;;      Temps:          1       0       0       0       0
  3041 ;;      Totals:         6       0       0       0       0
  3042 ;;Total ram usage:        6 bytes
  3043 ;; Hardware stack levels used: 1
  3044 ;; Hardware stack levels required when called: 1
  3045 ;; This function calls:
  3046 ;;		Nothing
  3047 ;; This function is called by:
  3048 ;;		_divisor
  3049 ;; This function uses a non-reentrant model
  3050 ;;
  3051                           
  3052                           
  3053                           ;psect for function ___lwmod
  3054  04A7                     ___lwmod:
  3055  04A7                     l1466:	
  3056                           ;incstack = 0
  3057                           ; Regs used in ___lwmod: [wreg+status,2+status,0]
  3058                           
  3059  04A7  0873               	movf	___lwmod@divisor,w
  3060  04A8  0474               	iorwf	___lwmod@divisor+1,w
  3061  04A9  1903               	btfsc	3,2
  3062  04AA  2CAC               	goto	u791
  3063  04AB  2CAD               	goto	u790
  3064  04AC                     u791:
  3065  04AC  2CDC               	goto	l1484
  3066  04AD                     u790:
  3067  04AD                     l1468:
  3068  04AD  01F8               	clrf	___lwmod@counter
  3069  04AE  0AF8               	incf	___lwmod@counter,f
  3070  04AF  2CBB               	goto	l1474
  3071  04B0                     l1470:
  3072  04B0  3001               	movlw	1
  3073  04B1                     u805:
  3074  04B1  1003               	clrc
  3075  04B2  0DF3               	rlf	___lwmod@divisor,f
  3076  04B3  0DF4               	rlf	___lwmod@divisor+1,f
  3077  04B4  3EFF               	addlw	-1
  3078  04B5  1D03               	skipz
  3079  04B6  2CB1               	goto	u805
  3080  04B7                     l1472:
  3081  04B7  3001               	movlw	1
  3082  04B8  00F7               	movwf	??___lwmod
  3083  04B9  0877               	movf	??___lwmod,w
  3084  04BA  07F8               	addwf	___lwmod@counter,f
  3085  04BB                     l1474:
  3086  04BB  1FF4               	btfss	___lwmod@divisor+1,7
  3087  04BC  2CBE               	goto	u811
  3088  04BD  2CBF               	goto	u810
  3089  04BE                     u811:
  3090  04BE  2CB0               	goto	l1470
  3091  04BF                     u810:
  3092  04BF                     l1476:
  3093  04BF  0874               	movf	___lwmod@divisor+1,w
  3094  04C0  0276               	subwf	___lwmod@dividend+1,w
  3095  04C1  1D03               	skipz
  3096  04C2  2CC5               	goto	u825
  3097  04C3  0873               	movf	___lwmod@divisor,w
  3098  04C4  0275               	subwf	___lwmod@dividend,w
  3099  04C5                     u825:
  3100  04C5  1C03               	skipc
  3101  04C6  2CC8               	goto	u821
  3102  04C7  2CC9               	goto	u820
  3103  04C8                     u821:
  3104  04C8  2CCF               	goto	l1480
  3105  04C9                     u820:
  3106  04C9                     l1478:
  3107  04C9  0873               	movf	___lwmod@divisor,w
  3108  04CA  02F5               	subwf	___lwmod@dividend,f
  3109  04CB  0874               	movf	___lwmod@divisor+1,w
  3110  04CC  1C03               	skipc
  3111  04CD  03F6               	decf	___lwmod@dividend+1,f
  3112  04CE  02F6               	subwf	___lwmod@dividend+1,f
  3113  04CF                     l1480:
  3114  04CF  3001               	movlw	1
  3115  04D0                     u835:
  3116  04D0  1003               	clrc
  3117  04D1  0CF4               	rrf	___lwmod@divisor+1,f
  3118  04D2  0CF3               	rrf	___lwmod@divisor,f
  3119  04D3  3EFF               	addlw	-1
  3120  04D4  1D03               	skipz
  3121  04D5  2CD0               	goto	u835
  3122  04D6                     l1482:
  3123  04D6  3001               	movlw	1
  3124  04D7  02F8               	subwf	___lwmod@counter,f
  3125  04D8  1D03               	btfss	3,2
  3126  04D9  2CDB               	goto	u841
  3127  04DA  2CDC               	goto	u840
  3128  04DB                     u841:
  3129  04DB  2CBF               	goto	l1476
  3130  04DC                     u840:
  3131  04DC                     l1484:
  3132  04DC  0876               	movf	___lwmod@dividend+1,w
  3133  04DD  00F4               	movwf	?___lwmod+1
  3134  04DE  0875               	movf	___lwmod@dividend,w
  3135  04DF  00F3               	movwf	?___lwmod
  3136  04E0                     l576:
  3137  04E0  0008               	return
  3138  04E1                     __end_of___lwmod:
  3139                           
  3140                           	psect	text17
  3141  0463                     __ptext17:	
  3142 ;; *************** function ___lwdiv *****************
  3143 ;; Defined at:
  3144 ;;		line 5 in file "C:\Program Files\Microchip\xc8\v2.32\pic\sources\c90\common\lwdiv.c"
  3145 ;; Parameters:    Size  Location     Type
  3146 ;;  divisor         2    3[COMMON] unsigned int 
  3147 ;;  dividend        2    5[COMMON] unsigned int 
  3148 ;; Auto vars:     Size  Location     Type
  3149 ;;  quotient        2    8[COMMON] unsigned int 
  3150 ;;  counter         1   10[COMMON] unsigned char 
  3151 ;; Return value:  Size  Location     Type
  3152 ;;                  2    3[COMMON] unsigned int 
  3153 ;; Registers used:
  3154 ;;		wreg, status,2, status,0
  3155 ;; Tracked objects:
  3156 ;;		On entry : 0/0
  3157 ;;		On exit  : 0/0
  3158 ;;		Unchanged: 0/0
  3159 ;; Data sizes:     COMMON   BANK0   BANK1   BANK3   BANK2
  3160 ;;      Params:         4       0       0       0       0
  3161 ;;      Locals:         3       0       0       0       0
  3162 ;;      Temps:          1       0       0       0       0
  3163 ;;      Totals:         8       0       0       0       0
  3164 ;;Total ram usage:        8 bytes
  3165 ;; Hardware stack levels used: 1
  3166 ;; Hardware stack levels required when called: 1
  3167 ;; This function calls:
  3168 ;;		Nothing
  3169 ;; This function is called by:
  3170 ;;		_divisor
  3171 ;; This function uses a non-reentrant model
  3172 ;;
  3173                           
  3174                           
  3175                           ;psect for function ___lwdiv
  3176  0463                     ___lwdiv:
  3177  0463                     l1440:	
  3178                           ;incstack = 0
  3179                           ; Regs used in ___lwdiv: [wreg+status,2+status,0]
  3180                           
  3181  0463  01F8               	clrf	___lwdiv@quotient
  3182  0464  01F9               	clrf	___lwdiv@quotient+1
  3183  0465                     l1442:
  3184  0465  0873               	movf	___lwdiv@divisor,w
  3185  0466  0474               	iorwf	___lwdiv@divisor+1,w
  3186  0467  1903               	btfsc	3,2
  3187  0468  2C6A               	goto	u721
  3188  0469  2C6B               	goto	u720
  3189  046A                     u721:
  3190  046A  2CA2               	goto	l1462
  3191  046B                     u720:
  3192  046B                     l1444:
  3193  046B  01FA               	clrf	___lwdiv@counter
  3194  046C  0AFA               	incf	___lwdiv@counter,f
  3195  046D  2C79               	goto	l1450
  3196  046E                     l1446:
  3197  046E  3001               	movlw	1
  3198  046F                     u735:
  3199  046F  1003               	clrc
  3200  0470  0DF3               	rlf	___lwdiv@divisor,f
  3201  0471  0DF4               	rlf	___lwdiv@divisor+1,f
  3202  0472  3EFF               	addlw	-1
  3203  0473  1D03               	skipz
  3204  0474  2C6F               	goto	u735
  3205  0475                     l1448:
  3206  0475  3001               	movlw	1
  3207  0476  00F7               	movwf	??___lwdiv
  3208  0477  0877               	movf	??___lwdiv,w
  3209  0478  07FA               	addwf	___lwdiv@counter,f
  3210  0479                     l1450:
  3211  0479  1FF4               	btfss	___lwdiv@divisor+1,7
  3212  047A  2C7C               	goto	u741
  3213  047B  2C7D               	goto	u740
  3214  047C                     u741:
  3215  047C  2C6E               	goto	l1446
  3216  047D                     u740:
  3217  047D                     l1452:
  3218  047D  3001               	movlw	1
  3219  047E                     u755:
  3220  047E  1003               	clrc
  3221  047F  0DF8               	rlf	___lwdiv@quotient,f
  3222  0480  0DF9               	rlf	___lwdiv@quotient+1,f
  3223  0481  3EFF               	addlw	-1
  3224  0482  1D03               	skipz
  3225  0483  2C7E               	goto	u755
  3226  0484  0874               	movf	___lwdiv@divisor+1,w
  3227  0485  0276               	subwf	___lwdiv@dividend+1,w
  3228  0486  1D03               	skipz
  3229  0487  2C8A               	goto	u765
  3230  0488  0873               	movf	___lwdiv@divisor,w
  3231  0489  0275               	subwf	___lwdiv@dividend,w
  3232  048A                     u765:
  3233  048A  1C03               	skipc
  3234  048B  2C8D               	goto	u761
  3235  048C  2C8E               	goto	u760
  3236  048D                     u761:
  3237  048D  2C95               	goto	l1458
  3238  048E                     u760:
  3239  048E                     l1454:
  3240  048E  0873               	movf	___lwdiv@divisor,w
  3241  048F  02F5               	subwf	___lwdiv@dividend,f
  3242  0490  0874               	movf	___lwdiv@divisor+1,w
  3243  0491  1C03               	skipc
  3244  0492  03F6               	decf	___lwdiv@dividend+1,f
  3245  0493  02F6               	subwf	___lwdiv@dividend+1,f
  3246  0494                     l1456:
  3247  0494  1478               	bsf	___lwdiv@quotient,0
  3248  0495                     l1458:
  3249  0495  3001               	movlw	1
  3250  0496                     u775:
  3251  0496  1003               	clrc
  3252  0497  0CF4               	rrf	___lwdiv@divisor+1,f
  3253  0498  0CF3               	rrf	___lwdiv@divisor,f
  3254  0499  3EFF               	addlw	-1
  3255  049A  1D03               	skipz
  3256  049B  2C96               	goto	u775
  3257  049C                     l1460:
  3258  049C  3001               	movlw	1
  3259  049D  02FA               	subwf	___lwdiv@counter,f
  3260  049E  1D03               	btfss	3,2
  3261  049F  2CA1               	goto	u781
  3262  04A0  2CA2               	goto	u780
  3263  04A1                     u781:
  3264  04A1  2C7D               	goto	l1452
  3265  04A2                     u780:
  3266  04A2                     l1462:
  3267  04A2  0879               	movf	___lwdiv@quotient+1,w
  3268  04A3  00F4               	movwf	?___lwdiv+1
  3269  04A4  0878               	movf	___lwdiv@quotient,w
  3270  04A5  00F3               	movwf	?___lwdiv
  3271  04A6                     l566:
  3272  04A6  0008               	return
  3273  04A7                     __end_of___lwdiv:
  3274                           
  3275                           	psect	text18
  3276  03BE                     __ptext18:	
  3277 ;; *************** function ___awmod *****************
  3278 ;; Defined at:
  3279 ;;		line 5 in file "C:\Program Files\Microchip\xc8\v2.32\pic\sources\c90\common\awmod.c"
  3280 ;; Parameters:    Size  Location     Type
  3281 ;;  divisor         2    3[COMMON] int 
  3282 ;;  dividend        2    5[COMMON] int 
  3283 ;; Auto vars:     Size  Location     Type
  3284 ;;  sign            1    9[COMMON] unsigned char 
  3285 ;;  counter         1    8[COMMON] unsigned char 
  3286 ;; Return value:  Size  Location     Type
  3287 ;;                  2    3[COMMON] int 
  3288 ;; Registers used:
  3289 ;;		wreg, status,2, status,0
  3290 ;; Tracked objects:
  3291 ;;		On entry : 0/0
  3292 ;;		On exit  : 0/0
  3293 ;;		Unchanged: 0/0
  3294 ;; Data sizes:     COMMON   BANK0   BANK1   BANK3   BANK2
  3295 ;;      Params:         4       0       0       0       0
  3296 ;;      Locals:         2       0       0       0       0
  3297 ;;      Temps:          1       0       0       0       0
  3298 ;;      Totals:         7       0       0       0       0
  3299 ;;Total ram usage:        7 bytes
  3300 ;; Hardware stack levels used: 1
  3301 ;; Hardware stack levels required when called: 1
  3302 ;; This function calls:
  3303 ;;		Nothing
  3304 ;; This function is called by:
  3305 ;;		_divisor
  3306 ;; This function uses a non-reentrant model
  3307 ;;
  3308                           
  3309                           
  3310                           ;psect for function ___awmod
  3311  03BE                     ___awmod:
  3312  03BE                     l1402:	
  3313                           ;incstack = 0
  3314                           ; Regs used in ___awmod: [wreg+status,2+status,0]
  3315                           
  3316  03BE  01F9               	clrf	___awmod@sign
  3317  03BF                     l1404:
  3318  03BF  1FF6               	btfss	___awmod@dividend+1,7
  3319  03C0  2BC2               	goto	u631
  3320  03C1  2BC3               	goto	u630
  3321  03C2                     u631:
  3322  03C2  2BCA               	goto	l1410
  3323  03C3                     u630:
  3324  03C3                     l1406:
  3325  03C3  09F5               	comf	___awmod@dividend,f
  3326  03C4  09F6               	comf	___awmod@dividend+1,f
  3327  03C5  0AF5               	incf	___awmod@dividend,f
  3328  03C6  1903               	skipnz
  3329  03C7  0AF6               	incf	___awmod@dividend+1,f
  3330  03C8                     l1408:
  3331  03C8  01F9               	clrf	___awmod@sign
  3332  03C9  0AF9               	incf	___awmod@sign,f
  3333  03CA                     l1410:
  3334  03CA  1FF4               	btfss	___awmod@divisor+1,7
  3335  03CB  2BCD               	goto	u641
  3336  03CC  2BCE               	goto	u640
  3337  03CD                     u641:
  3338  03CD  2BD3               	goto	l1414
  3339  03CE                     u640:
  3340  03CE                     l1412:
  3341  03CE  09F3               	comf	___awmod@divisor,f
  3342  03CF  09F4               	comf	___awmod@divisor+1,f
  3343  03D0  0AF3               	incf	___awmod@divisor,f
  3344  03D1  1903               	skipnz
  3345  03D2  0AF4               	incf	___awmod@divisor+1,f
  3346  03D3                     l1414:
  3347  03D3  0873               	movf	___awmod@divisor,w
  3348  03D4  0474               	iorwf	___awmod@divisor+1,w
  3349  03D5  1903               	btfsc	3,2
  3350  03D6  2BD8               	goto	u651
  3351  03D7  2BD9               	goto	u650
  3352  03D8                     u651:
  3353  03D8  2C08               	goto	l1432
  3354  03D9                     u650:
  3355  03D9                     l1416:
  3356  03D9  01F8               	clrf	___awmod@counter
  3357  03DA  0AF8               	incf	___awmod@counter,f
  3358  03DB  2BE7               	goto	l1422
  3359  03DC                     l1418:
  3360  03DC  3001               	movlw	1
  3361  03DD                     u665:
  3362  03DD  1003               	clrc
  3363  03DE  0DF3               	rlf	___awmod@divisor,f
  3364  03DF  0DF4               	rlf	___awmod@divisor+1,f
  3365  03E0  3EFF               	addlw	-1
  3366  03E1  1D03               	skipz
  3367  03E2  2BDD               	goto	u665
  3368  03E3                     l1420:
  3369  03E3  3001               	movlw	1
  3370  03E4  00F7               	movwf	??___awmod
  3371  03E5  0877               	movf	??___awmod,w
  3372  03E6  07F8               	addwf	___awmod@counter,f
  3373  03E7                     l1422:
  3374  03E7  1FF4               	btfss	___awmod@divisor+1,7
  3375  03E8  2BEA               	goto	u671
  3376  03E9  2BEB               	goto	u670
  3377  03EA                     u671:
  3378  03EA  2BDC               	goto	l1418
  3379  03EB                     u670:
  3380  03EB                     l1424:
  3381  03EB  0874               	movf	___awmod@divisor+1,w
  3382  03EC  0276               	subwf	___awmod@dividend+1,w
  3383  03ED  1D03               	skipz
  3384  03EE  2BF1               	goto	u685
  3385  03EF  0873               	movf	___awmod@divisor,w
  3386  03F0  0275               	subwf	___awmod@dividend,w
  3387  03F1                     u685:
  3388  03F1  1C03               	skipc
  3389  03F2  2BF4               	goto	u681
  3390  03F3  2BF5               	goto	u680
  3391  03F4                     u681:
  3392  03F4  2BFB               	goto	l1428
  3393  03F5                     u680:
  3394  03F5                     l1426:
  3395  03F5  0873               	movf	___awmod@divisor,w
  3396  03F6  02F5               	subwf	___awmod@dividend,f
  3397  03F7  0874               	movf	___awmod@divisor+1,w
  3398  03F8  1C03               	skipc
  3399  03F9  03F6               	decf	___awmod@dividend+1,f
  3400  03FA  02F6               	subwf	___awmod@dividend+1,f
  3401  03FB                     l1428:
  3402  03FB  3001               	movlw	1
  3403  03FC                     u695:
  3404  03FC  1003               	clrc
  3405  03FD  0CF4               	rrf	___awmod@divisor+1,f
  3406  03FE  0CF3               	rrf	___awmod@divisor,f
  3407  03FF  3EFF               	addlw	-1
  3408  0400  1D03               	skipz
  3409  0401  2BFC               	goto	u695
  3410  0402                     l1430:
  3411  0402  3001               	movlw	1
  3412  0403  02F8               	subwf	___awmod@counter,f
  3413  0404  1D03               	btfss	3,2
  3414  0405  2C07               	goto	u701
  3415  0406  2C08               	goto	u700
  3416  0407                     u701:
  3417  0407  2BEB               	goto	l1424
  3418  0408                     u700:
  3419  0408                     l1432:
  3420  0408  0879               	movf	___awmod@sign,w
  3421  0409  1903               	btfsc	3,2
  3422  040A  2C0C               	goto	u711
  3423  040B  2C0D               	goto	u710
  3424  040C                     u711:
  3425  040C  2C12               	goto	l1436
  3426  040D                     u710:
  3427  040D                     l1434:
  3428  040D  09F5               	comf	___awmod@dividend,f
  3429  040E  09F6               	comf	___awmod@dividend+1,f
  3430  040F  0AF5               	incf	___awmod@dividend,f
  3431  0410  1903               	skipnz
  3432  0411  0AF6               	incf	___awmod@dividend+1,f
  3433  0412                     l1436:
  3434  0412  0876               	movf	___awmod@dividend+1,w
  3435  0413  00F4               	movwf	?___awmod+1
  3436  0414  0875               	movf	___awmod@dividend,w
  3437  0415  00F3               	movwf	?___awmod
  3438  0416                     l460:
  3439  0416  0008               	return
  3440  0417                     __end_of___awmod:
  3441                           
  3442                           	psect	text19
  3443  02F7                     __ptext19:	
  3444 ;; *************** function ___awdiv *****************
  3445 ;; Defined at:
  3446 ;;		line 5 in file "C:\Program Files\Microchip\xc8\v2.32\pic\sources\c90\common\awdiv.c"
  3447 ;; Parameters:    Size  Location     Type
  3448 ;;  divisor         2    0[BANK0 ] int 
  3449 ;;  dividend        2    2[BANK0 ] int 
  3450 ;; Auto vars:     Size  Location     Type
  3451 ;;  quotient        2    6[BANK0 ] int 
  3452 ;;  sign            1    5[BANK0 ] unsigned char 
  3453 ;;  counter         1    4[BANK0 ] unsigned char 
  3454 ;; Return value:  Size  Location     Type
  3455 ;;                  2    0[BANK0 ] int 
  3456 ;; Registers used:
  3457 ;;		wreg, status,2, status,0
  3458 ;; Tracked objects:
  3459 ;;		On entry : 0/0
  3460 ;;		On exit  : 0/0
  3461 ;;		Unchanged: 0/0
  3462 ;; Data sizes:     COMMON   BANK0   BANK1   BANK3   BANK2
  3463 ;;      Params:         0       4       0       0       0
  3464 ;;      Locals:         0       4       0       0       0
  3465 ;;      Temps:          1       0       0       0       0
  3466 ;;      Totals:         1       8       0       0       0
  3467 ;;Total ram usage:        9 bytes
  3468 ;; Hardware stack levels used: 1
  3469 ;; Hardware stack levels required when called: 1
  3470 ;; This function calls:
  3471 ;;		Nothing
  3472 ;; This function is called by:
  3473 ;;		_map
  3474 ;;		_divisor
  3475 ;; This function uses a non-reentrant model
  3476 ;;
  3477                           
  3478                           
  3479                           ;psect for function ___awdiv
  3480  02F7                     ___awdiv:
  3481  02F7                     l1358:	
  3482                           ;incstack = 0
  3483                           ; Regs used in ___awdiv: [wreg+status,2+status,0]
  3484                           
  3485  02F7  1283               	bcf	3,5	;RP0=0, select bank0
  3486  02F8  1303               	bcf	3,6	;RP1=0, select bank0
  3487  02F9  01A5               	clrf	___awdiv@sign
  3488  02FA                     l1360:
  3489  02FA  1FA1               	btfss	___awdiv@divisor+1,7
  3490  02FB  2AFD               	goto	u531
  3491  02FC  2AFE               	goto	u530
  3492  02FD                     u531:
  3493  02FD  2B05               	goto	l1366
  3494  02FE                     u530:
  3495  02FE                     l1362:
  3496  02FE  09A0               	comf	___awdiv@divisor,f
  3497  02FF  09A1               	comf	___awdiv@divisor+1,f
  3498  0300  0AA0               	incf	___awdiv@divisor,f
  3499  0301  1903               	skipnz
  3500  0302  0AA1               	incf	___awdiv@divisor+1,f
  3501  0303                     l1364:
  3502  0303  01A5               	clrf	___awdiv@sign
  3503  0304  0AA5               	incf	___awdiv@sign,f
  3504  0305                     l1366:
  3505  0305  1FA3               	btfss	___awdiv@dividend+1,7
  3506  0306  2B08               	goto	u541
  3507  0307  2B09               	goto	u540
  3508  0308                     u541:
  3509  0308  2B12               	goto	l1372
  3510  0309                     u540:
  3511  0309                     l1368:
  3512  0309  09A2               	comf	___awdiv@dividend,f
  3513  030A  09A3               	comf	___awdiv@dividend+1,f
  3514  030B  0AA2               	incf	___awdiv@dividend,f
  3515  030C  1903               	skipnz
  3516  030D  0AA3               	incf	___awdiv@dividend+1,f
  3517  030E                     l1370:
  3518  030E  3001               	movlw	1
  3519  030F  00F9               	movwf	??___awdiv
  3520  0310  0879               	movf	??___awdiv,w
  3521  0311  06A5               	xorwf	___awdiv@sign,f
  3522  0312                     l1372:
  3523  0312  01A6               	clrf	___awdiv@quotient
  3524  0313  01A7               	clrf	___awdiv@quotient+1
  3525  0314                     l1374:
  3526  0314  0820               	movf	___awdiv@divisor,w
  3527  0315  0421               	iorwf	___awdiv@divisor+1,w
  3528  0316  1903               	btfsc	3,2
  3529  0317  2B19               	goto	u551
  3530  0318  2B1A               	goto	u550
  3531  0319                     u551:
  3532  0319  2B51               	goto	l1394
  3533  031A                     u550:
  3534  031A                     l1376:
  3535  031A  01A4               	clrf	___awdiv@counter
  3536  031B  0AA4               	incf	___awdiv@counter,f
  3537  031C  2B28               	goto	l1382
  3538  031D                     l1378:
  3539  031D  3001               	movlw	1
  3540  031E                     u565:
  3541  031E  1003               	clrc
  3542  031F  0DA0               	rlf	___awdiv@divisor,f
  3543  0320  0DA1               	rlf	___awdiv@divisor+1,f
  3544  0321  3EFF               	addlw	-1
  3545  0322  1D03               	skipz
  3546  0323  2B1E               	goto	u565
  3547  0324                     l1380:
  3548  0324  3001               	movlw	1
  3549  0325  00F9               	movwf	??___awdiv
  3550  0326  0879               	movf	??___awdiv,w
  3551  0327  07A4               	addwf	___awdiv@counter,f
  3552  0328                     l1382:
  3553  0328  1FA1               	btfss	___awdiv@divisor+1,7
  3554  0329  2B2B               	goto	u571
  3555  032A  2B2C               	goto	u570
  3556  032B                     u571:
  3557  032B  2B1D               	goto	l1378
  3558  032C                     u570:
  3559  032C                     l1384:
  3560  032C  3001               	movlw	1
  3561  032D                     u585:
  3562  032D  1003               	clrc
  3563  032E  0DA6               	rlf	___awdiv@quotient,f
  3564  032F  0DA7               	rlf	___awdiv@quotient+1,f
  3565  0330  3EFF               	addlw	-1
  3566  0331  1D03               	skipz
  3567  0332  2B2D               	goto	u585
  3568  0333  0821               	movf	___awdiv@divisor+1,w
  3569  0334  0223               	subwf	___awdiv@dividend+1,w
  3570  0335  1D03               	skipz
  3571  0336  2B39               	goto	u595
  3572  0337  0820               	movf	___awdiv@divisor,w
  3573  0338  0222               	subwf	___awdiv@dividend,w
  3574  0339                     u595:
  3575  0339  1C03               	skipc
  3576  033A  2B3C               	goto	u591
  3577  033B  2B3D               	goto	u590
  3578  033C                     u591:
  3579  033C  2B44               	goto	l1390
  3580  033D                     u590:
  3581  033D                     l1386:
  3582  033D  0820               	movf	___awdiv@divisor,w
  3583  033E  02A2               	subwf	___awdiv@dividend,f
  3584  033F  0821               	movf	___awdiv@divisor+1,w
  3585  0340  1C03               	skipc
  3586  0341  03A3               	decf	___awdiv@dividend+1,f
  3587  0342  02A3               	subwf	___awdiv@dividend+1,f
  3588  0343                     l1388:
  3589  0343  1426               	bsf	___awdiv@quotient,0
  3590  0344                     l1390:
  3591  0344  3001               	movlw	1
  3592  0345                     u605:
  3593  0345  1003               	clrc
  3594  0346  0CA1               	rrf	___awdiv@divisor+1,f
  3595  0347  0CA0               	rrf	___awdiv@divisor,f
  3596  0348  3EFF               	addlw	-1
  3597  0349  1D03               	skipz
  3598  034A  2B45               	goto	u605
  3599  034B                     l1392:
  3600  034B  3001               	movlw	1
  3601  034C  02A4               	subwf	___awdiv@counter,f
  3602  034D  1D03               	btfss	3,2
  3603  034E  2B50               	goto	u611
  3604  034F  2B51               	goto	u610
  3605  0350                     u611:
  3606  0350  2B2C               	goto	l1384
  3607  0351                     u610:
  3608  0351                     l1394:
  3609  0351  0825               	movf	___awdiv@sign,w
  3610  0352  1903               	btfsc	3,2
  3611  0353  2B55               	goto	u621
  3612  0354  2B56               	goto	u620
  3613  0355                     u621:
  3614  0355  2B5B               	goto	l1398
  3615  0356                     u620:
  3616  0356                     l1396:
  3617  0356  09A6               	comf	___awdiv@quotient,f
  3618  0357  09A7               	comf	___awdiv@quotient+1,f
  3619  0358  0AA6               	incf	___awdiv@quotient,f
  3620  0359  1903               	skipnz
  3621  035A  0AA7               	incf	___awdiv@quotient+1,f
  3622  035B                     l1398:
  3623  035B  0827               	movf	___awdiv@quotient+1,w
  3624  035C  00A1               	movwf	?___awdiv+1
  3625  035D  0826               	movf	___awdiv@quotient,w
  3626  035E  00A0               	movwf	?___awdiv
  3627  035F                     l447:
  3628  035F  0008               	return
  3629  0360                     __end_of___awdiv:
  3630                           
  3631                           	psect	text20
  3632  0629                     __ptext20:	
  3633 ;; *************** function _config_tx *****************
  3634 ;; Defined at:
  3635 ;;		line 4 in file "UART.c"
  3636 ;; Parameters:    Size  Location     Type
  3637 ;;		None
  3638 ;; Auto vars:     Size  Location     Type
  3639 ;;		None
  3640 ;; Return value:  Size  Location     Type
  3641 ;;                  1    wreg      void 
  3642 ;; Registers used:
  3643 ;;		wreg, status,2
  3644 ;; Tracked objects:
  3645 ;;		On entry : 0/0
  3646 ;;		On exit  : 0/0
  3647 ;;		Unchanged: 0/0
  3648 ;; Data sizes:     COMMON   BANK0   BANK1   BANK3   BANK2
  3649 ;;      Params:         0       0       0       0       0
  3650 ;;      Locals:         0       0       0       0       0
  3651 ;;      Temps:          0       0       0       0       0
  3652 ;;      Totals:         0       0       0       0       0
  3653 ;;Total ram usage:        0 bytes
  3654 ;; Hardware stack levels used: 1
  3655 ;; Hardware stack levels required when called: 1
  3656 ;; This function calls:
  3657 ;;		Nothing
  3658 ;; This function is called by:
  3659 ;;		_main
  3660 ;; This function uses a non-reentrant model
  3661 ;;
  3662                           
  3663                           
  3664                           ;psect for function _config_tx
  3665  0629                     _config_tx:
  3666  0629                     l1508:	
  3667                           ;incstack = 0
  3668                           ; Regs used in _config_tx: [wreg+status,2]
  3669                           
  3670                           
  3671                           ;UART.c: 6:     SPBRGH = 0;
  3672  0629  1683               	bsf	3,5	;RP0=1, select bank1
  3673  062A  1303               	bcf	3,6	;RP1=0, select bank1
  3674  062B  019A               	clrf	26	;volatile
  3675  062C                     l1510:
  3676                           
  3677                           ;UART.c: 7:     SPBRG = 103;
  3678  062C  3067               	movlw	103
  3679  062D  0099               	movwf	25	;volatile
  3680  062E                     l1512:
  3681                           
  3682                           ;UART.c: 8:     TXSTAbits.SYNC = 0;
  3683  062E  1218               	bcf	24,4	;volatile
  3684  062F                     l1514:
  3685                           
  3686                           ;UART.c: 9:     TXSTAbits.BRGH = 1;
  3687  062F  1518               	bsf	24,2	;volatile
  3688  0630                     l1516:
  3689                           
  3690                           ;UART.c: 10:     BAUDCTLbits.BRG16 = 1;
  3691  0630  1683               	bsf	3,5	;RP0=1, select bank3
  3692  0631  1703               	bsf	3,6	;RP1=1, select bank3
  3693  0632  1587               	bsf	7,3	;volatile
  3694  0633                     l1518:
  3695                           
  3696                           ;UART.c: 12:     RCSTAbits.SPEN = 1;
  3697  0633  1283               	bcf	3,5	;RP0=0, select bank0
  3698  0634  1303               	bcf	3,6	;RP1=0, select bank0
  3699  0635  1798               	bsf	24,7	;volatile
  3700  0636                     l1520:
  3701                           
  3702                           ;UART.c: 13:     TXSTAbits.TX9 = 0;
  3703  0636  1683               	bsf	3,5	;RP0=1, select bank1
  3704  0637  1303               	bcf	3,6	;RP1=0, select bank1
  3705  0638  1318               	bcf	24,6	;volatile
  3706  0639                     l1522:
  3707                           
  3708                           ;UART.c: 14:     TXSTAbits.TXEN = 1;
  3709  0639  1698               	bsf	24,5	;volatile
  3710  063A                     l199:
  3711  063A  0008               	return
  3712  063B                     __end_of_config_tx:
  3713                           
  3714                           	psect	text21
  3715  063B                     __ptext21:	
  3716 ;; *************** function _config_timer1 *****************
  3717 ;; Defined at:
  3718 ;;		line 210 in file "D2_SPI_Master.c"
  3719 ;; Parameters:    Size  Location     Type
  3720 ;;		None
  3721 ;; Auto vars:     Size  Location     Type
  3722 ;;		None
  3723 ;; Return value:  Size  Location     Type
  3724 ;;                  1    wreg      void 
  3725 ;; Registers used:
  3726 ;;		wreg
  3727 ;; Tracked objects:
  3728 ;;		On entry : 0/0
  3729 ;;		On exit  : 0/0
  3730 ;;		Unchanged: 0/0
  3731 ;; Data sizes:     COMMON   BANK0   BANK1   BANK3   BANK2
  3732 ;;      Params:         0       0       0       0       0
  3733 ;;      Locals:         0       0       0       0       0
  3734 ;;      Temps:          0       0       0       0       0
  3735 ;;      Totals:         0       0       0       0       0
  3736 ;;Total ram usage:        0 bytes
  3737 ;; Hardware stack levels used: 1
  3738 ;; Hardware stack levels required when called: 1
  3739 ;; This function calls:
  3740 ;;		Nothing
  3741 ;; This function is called by:
  3742 ;;		_main
  3743 ;; This function uses a non-reentrant model
  3744 ;;
  3745                           
  3746                           
  3747                           ;psect for function _config_timer1
  3748  063B                     _config_timer1:
  3749  063B                     l1526:	
  3750                           ;incstack = 0
  3751                           ; Regs used in _config_timer1: [wreg]
  3752                           
  3753                           
  3754                           ;D2_SPI_Master.c: 212:     T1CONbits.T1CKPS1 = 1;
  3755  063B  1283               	bcf	3,5	;RP0=0, select bank0
  3756  063C  1303               	bcf	3,6	;RP1=0, select bank0
  3757  063D  1690               	bsf	16,5	;volatile
  3758                           
  3759                           ;D2_SPI_Master.c: 213:     T1CONbits.T1CKPS0 = 1;
  3760  063E  1610               	bsf	16,4	;volatile
  3761                           
  3762                           ;D2_SPI_Master.c: 214:     T1CONbits.T1OSCEN = 0;
  3763  063F  1190               	bcf	16,3	;volatile
  3764                           
  3765                           ;D2_SPI_Master.c: 215:     T1CONbits.T1SYNC = 1;
  3766  0640  1510               	bsf	16,2	;volatile
  3767                           
  3768                           ;D2_SPI_Master.c: 216:     T1CONbits.TMR1CS = 0;
  3769  0641  1090               	bcf	16,1	;volatile
  3770                           
  3771                           ;D2_SPI_Master.c: 217:     T1CONbits.TMR1ON = 1;
  3772  0642  1410               	bsf	16,0	;volatile
  3773  0643                     l1528:
  3774                           
  3775                           ;D2_SPI_Master.c: 218:     TMR1H = 11;
  3776  0643  300B               	movlw	11
  3777  0644  008F               	movwf	15	;volatile
  3778                           
  3779                           ;D2_SPI_Master.c: 219:     TMR1L = 220;
  3780  0645  30DC               	movlw	220
  3781  0646  008E               	movwf	14	;volatile
  3782  0647                     l1530:
  3783                           
  3784                           ;D2_SPI_Master.c: 221:     INTCONbits.PEIE = 1;
  3785  0647  170B               	bsf	11,6	;volatile
  3786  0648                     l1532:
  3787                           
  3788                           ;D2_SPI_Master.c: 222:     PIE1bits.TMR1IE = 1;
  3789  0648  1683               	bsf	3,5	;RP0=1, select bank1
  3790  0649  1303               	bcf	3,6	;RP1=0, select bank1
  3791  064A  140C               	bsf	12,0	;volatile
  3792  064B                     l1534:
  3793                           
  3794                           ;D2_SPI_Master.c: 223:     INTCONbits.GIE = 1;
  3795  064B  178B               	bsf	11,7	;volatile
  3796  064C                     l116:
  3797  064C  0008               	return
  3798  064D                     __end_of_config_timer1:
  3799                           
  3800                           	psect	text22
  3801  069B                     __ptext22:	
  3802 ;; *************** function _config_reloj *****************
  3803 ;; Defined at:
  3804 ;;		line 201 in file "D2_SPI_Master.c"
  3805 ;; Parameters:    Size  Location     Type
  3806 ;;		None
  3807 ;; Auto vars:     Size  Location     Type
  3808 ;;		None
  3809 ;; Return value:  Size  Location     Type
  3810 ;;                  1    wreg      void 
  3811 ;; Registers used:
  3812 ;;		None
  3813 ;; Tracked objects:
  3814 ;;		On entry : 0/0
  3815 ;;		On exit  : 0/0
  3816 ;;		Unchanged: 0/0
  3817 ;; Data sizes:     COMMON   BANK0   BANK1   BANK3   BANK2
  3818 ;;      Params:         0       0       0       0       0
  3819 ;;      Locals:         0       0       0       0       0
  3820 ;;      Temps:          0       0       0       0       0
  3821 ;;      Totals:         0       0       0       0       0
  3822 ;;Total ram usage:        0 bytes
  3823 ;; Hardware stack levels used: 1
  3824 ;; Hardware stack levels required when called: 1
  3825 ;; This function calls:
  3826 ;;		Nothing
  3827 ;; This function is called by:
  3828 ;;		_main
  3829 ;; This function uses a non-reentrant model
  3830 ;;
  3831                           
  3832                           
  3833                           ;psect for function _config_reloj
  3834  069B                     _config_reloj:
  3835  069B                     l1488:	
  3836                           ;incstack = 0
  3837                           ; Regs used in _config_reloj: []
  3838                           
  3839                           
  3840                           ;D2_SPI_Master.c: 203:     OSCCONbits.IRCF2 = 1;
  3841  069B  1683               	bsf	3,5	;RP0=1, select bank1
  3842  069C  1303               	bcf	3,6	;RP1=0, select bank1
  3843  069D  170F               	bsf	15,6	;volatile
  3844                           
  3845                           ;D2_SPI_Master.c: 204:     OSCCONbits.IRCF1 = 1;
  3846  069E  168F               	bsf	15,5	;volatile
  3847                           
  3848                           ;D2_SPI_Master.c: 205:     OSCCONbits.IRCF0 = 0;
  3849  069F  120F               	bcf	15,4	;volatile
  3850                           
  3851                           ;D2_SPI_Master.c: 206:     OSCCONbits.SCS = 1;
  3852  06A0  140F               	bsf	15,0	;volatile
  3853  06A1                     l113:	
  3854                           ;D2_SPI_Master.c: 207:     return;
  3855                           
  3856  06A1  0008               	return
  3857  06A2                     __end_of_config_reloj:
  3858                           
  3859                           	psect	text23
  3860  05EA                     __ptext23:	
  3861 ;; *************** function _config_io *****************
  3862 ;; Defined at:
  3863 ;;		line 179 in file "D2_SPI_Master.c"
  3864 ;; Parameters:    Size  Location     Type
  3865 ;;		None
  3866 ;; Auto vars:     Size  Location     Type
  3867 ;;		None
  3868 ;; Return value:  Size  Location     Type
  3869 ;;                  1    wreg      void 
  3870 ;; Registers used:
  3871 ;;		status,2
  3872 ;; Tracked objects:
  3873 ;;		On entry : 0/0
  3874 ;;		On exit  : 0/0
  3875 ;;		Unchanged: 0/0
  3876 ;; Data sizes:     COMMON   BANK0   BANK1   BANK3   BANK2
  3877 ;;      Params:         0       0       0       0       0
  3878 ;;      Locals:         0       0       0       0       0
  3879 ;;      Temps:          0       0       0       0       0
  3880 ;;      Totals:         0       0       0       0       0
  3881 ;;Total ram usage:        0 bytes
  3882 ;; Hardware stack levels used: 1
  3883 ;; Hardware stack levels required when called: 1
  3884 ;; This function calls:
  3885 ;;		Nothing
  3886 ;; This function is called by:
  3887 ;;		_main
  3888 ;; This function uses a non-reentrant model
  3889 ;;
  3890                           
  3891                           
  3892                           ;psect for function _config_io
  3893  05EA                     _config_io:
  3894  05EA                     l1490:	
  3895                           ;incstack = 0
  3896                           ; Regs used in _config_io: [status,2]
  3897                           
  3898                           
  3899                           ;D2_SPI_Master.c: 181:     ANSEL = 0;
  3900  05EA  1683               	bsf	3,5	;RP0=1, select bank3
  3901  05EB  1703               	bsf	3,6	;RP1=1, select bank3
  3902  05EC  0188               	clrf	8	;volatile
  3903                           
  3904                           ;D2_SPI_Master.c: 182:     ANSELH = 0;
  3905  05ED  0189               	clrf	9	;volatile
  3906                           
  3907                           ;D2_SPI_Master.c: 184:     TRISA = 0;
  3908  05EE  1683               	bsf	3,5	;RP0=1, select bank1
  3909  05EF  1303               	bcf	3,6	;RP1=0, select bank1
  3910  05F0  0185               	clrf	5	;volatile
  3911                           
  3912                           ;D2_SPI_Master.c: 185:     TRISB = 0b000;
  3913  05F1  0186               	clrf	6	;volatile
  3914                           
  3915                           ;D2_SPI_Master.c: 186:     TRISC = 0b00;
  3916  05F2  0187               	clrf	7	;volatile
  3917  05F3                     l1492:
  3918                           
  3919                           ;D2_SPI_Master.c: 187:     TRISCbits.TRISC3 = 0;
  3920  05F3  1187               	bcf	7,3	;volatile
  3921  05F4                     l1494:
  3922                           
  3923                           ;D2_SPI_Master.c: 188:     TRISCbits.TRISC4 = 1;
  3924  05F4  1607               	bsf	7,4	;volatile
  3925  05F5                     l1496:
  3926                           
  3927                           ;D2_SPI_Master.c: 189:     TRISCbits.TRISC5 = 0;
  3928  05F5  1287               	bcf	7,5	;volatile
  3929  05F6                     l1498:
  3930                           
  3931                           ;D2_SPI_Master.c: 190:     TRISCbits.TRISC6 = 0;
  3932  05F6  1307               	bcf	7,6	;volatile
  3933                           
  3934                           ;D2_SPI_Master.c: 191:     TRISD = 0;
  3935  05F7  0188               	clrf	8	;volatile
  3936                           
  3937                           ;D2_SPI_Master.c: 193:     PORTA = 0;
  3938  05F8  1283               	bcf	3,5	;RP0=0, select bank0
  3939  05F9  1303               	bcf	3,6	;RP1=0, select bank0
  3940  05FA  0185               	clrf	5	;volatile
  3941                           
  3942                           ;D2_SPI_Master.c: 194:     PORTB = 0;
  3943  05FB  0186               	clrf	6	;volatile
  3944                           
  3945                           ;D2_SPI_Master.c: 195:     PORTC = 0;
  3946  05FC  0187               	clrf	7	;volatile
  3947                           
  3948                           ;D2_SPI_Master.c: 196:     PORTD = 0;
  3949  05FD  0188               	clrf	8	;volatile
  3950                           
  3951                           ;D2_SPI_Master.c: 197:     enviar_nada = 0;
  3952  05FE  01D6               	clrf	_enviar_nada
  3953  05FF                     l110:
  3954  05FF  0008               	return
  3955  0600                     __end_of_config_io:
  3956                           
  3957                           	psect	text24
  3958  0600                     __ptext24:	
  3959 ;; *************** function _isr *****************
  3960 ;; Defined at:
  3961 ;;		line 71 in file "D2_SPI_Master.c"
  3962 ;; Parameters:    Size  Location     Type
  3963 ;;		None
  3964 ;; Auto vars:     Size  Location     Type
  3965 ;;		None
  3966 ;; Return value:  Size  Location     Type
  3967 ;;                  1    wreg      void 
  3968 ;; Registers used:
  3969 ;;		wreg, status,2, status,0
  3970 ;; Tracked objects:
  3971 ;;		On entry : 0/0
  3972 ;;		On exit  : 0/0
  3973 ;;		Unchanged: 0/0
  3974 ;; Data sizes:     COMMON   BANK0   BANK1   BANK3   BANK2
  3975 ;;      Params:         0       0       0       0       0
  3976 ;;      Locals:         0       0       0       0       0
  3977 ;;      Temps:          3       0       0       0       0
  3978 ;;      Totals:         3       0       0       0       0
  3979 ;;Total ram usage:        3 bytes
  3980 ;; Hardware stack levels used: 1
  3981 ;; This function calls:
  3982 ;;		Nothing
  3983 ;; This function is called by:
  3984 ;;		Interrupt level 1
  3985 ;; This function uses a non-reentrant model
  3986 ;;
  3987                           
  3988                           
  3989                           ;psect for function _isr
  3990  0600                     _isr:
  3991  0600                     i1l1620:
  3992                           
  3993                           ;D2_SPI_Master.c: 73:     if(PIR1bits.TMR1IF)
  3994  0600  1283               	bcf	3,5	;RP0=0, select bank0
  3995  0601  1303               	bcf	3,6	;RP1=0, select bank0
  3996  0602  1C0C               	btfss	12,0	;volatile
  3997  0603  2E05               	goto	u88_21
  3998  0604  2E06               	goto	u88_20
  3999  0605                     u88_21:
  4000  0605  2E0F               	goto	i1l92
  4001  0606                     u88_20:
  4002  0606                     i1l1622:
  4003                           
  4004                           ;D2_SPI_Master.c: 74:     {;D2_SPI_Master.c: 75:         bandera_UART++;
  4005  0606  3001               	movlw	1
  4006  0607  00F0               	movwf	??_isr
  4007  0608  0870               	movf	??_isr,w
  4008  0609  07D5               	addwf	_bandera_UART,f
  4009  060A                     i1l1624:
  4010                           
  4011                           ;D2_SPI_Master.c: 76:         TMR1H = 11;
  4012  060A  300B               	movlw	11
  4013  060B  008F               	movwf	15	;volatile
  4014  060C                     i1l1626:
  4015                           
  4016                           ;D2_SPI_Master.c: 77:         TMR1L = 220;
  4017  060C  30DC               	movlw	220
  4018  060D  008E               	movwf	14	;volatile
  4019  060E                     i1l1628:
  4020                           
  4021                           ;D2_SPI_Master.c: 78:         PIR1bits.TMR1IF = 0;
  4022  060E  100C               	bcf	12,0	;volatile
  4023  060F                     i1l92:
  4024  060F  0872               	movf	??_isr+2,w
  4025  0610  008A               	movwf	10
  4026  0611  0E71               	swapf	??_isr+1,w
  4027  0612  0083               	movwf	3
  4028  0613  0EFE               	swapf	btemp,f
  4029  0614  0E7E               	swapf	btemp,w
  4030  0615  0009               	retfie
  4031  0616                     __end_of_isr:
  4032  007E                     btemp	set	126	;btemp
  4033  007E                     wtemp0	set	126
  4034                           
  4035                           	psect	intentry
  4036  0004                     __pintentry:	
  4037                           ;incstack = 0
  4038                           ; Regs used in _isr: [wreg+status,2+status,0]
  4039                           
  4040  0004                     interrupt_function:
  4041  007E                     saved_w	set	btemp
  4042  0004  00FE               	movwf	btemp
  4043  0005  0E03               	swapf	3,w
  4044  0006  00F1               	movwf	??_isr+1
  4045  0007  080A               	movf	10,w
  4046  0008  00F2               	movwf	??_isr+2
  4047  0009  120A  118A  2E00   	ljmp	_isr
  4048                           
  4049                           	psect	config
  4050                           
  4051                           ;Config register CONFIG1 @ 0x2007
  4052                           ;	Oscillator Selection bits
  4053                           ;	FOSC = INTRC_NOCLKOUT, INTOSCIO oscillator: I/O function on RA6/OSC2/CLKOUT pin, I/O f
      +                          unction on RA7/OSC1/CLKIN
  4054                           ;	Watchdog Timer Enable bit
  4055                           ;	WDTE = OFF, WDT disabled and can be enabled by SWDTEN bit of the WDTCON register
  4056                           ;	Power-up Timer Enable bit
  4057                           ;	PWRTE = OFF, PWRT disabled
  4058                           ;	RE3/MCLR pin function select bit
  4059                           ;	MCLRE = OFF, RE3/MCLR pin function is digital input, MCLR internally tied to VDD
  4060                           ;	Code Protection bit
  4061                           ;	CP = OFF, Program memory code protection is disabled
  4062                           ;	Data Code Protection bit
  4063                           ;	CPD = OFF, Data memory code protection is disabled
  4064                           ;	Brown Out Reset Selection bits
  4065                           ;	BOREN = OFF, BOR disabled
  4066                           ;	Internal External Switchover bit
  4067                           ;	IESO = OFF, Internal/External Switchover mode is disabled
  4068                           ;	Fail-Safe Clock Monitor Enabled bit
  4069                           ;	FCMEN = OFF, Fail-Safe Clock Monitor is disabled
  4070                           ;	Low Voltage Programming Enable bit
  4071                           ;	LVP = OFF, RB3 pin has digital I/O, HV on MCLR must be used for programming
  4072                           ;	In-Circuit Debugger Mode bit
  4073                           ;	DEBUG = 0x1, unprogrammed default
  4074  2007                     	org	8199
  4075  2007  20D4               	dw	8404
  4076                           
  4077                           ;Config register CONFIG2 @ 0x2008
  4078                           ;	Brown-out Reset Selection bit
  4079                           ;	BOR4V = BOR40V, Brown-out Reset set to 4.0V
  4080                           ;	Flash Program Memory Self Write Enable bits
  4081                           ;	WRT = OFF, Write protection off
  4082  2008                     	org	8200
  4083  2008  3FFF               	dw	16383

Data Sizes:
    Strings     0
    Constant    0
    Data        39
    BSS         33
    Persistent  0
    Stack       0

Auto Spaces:
    Space          Size  Autos    Used
    COMMON           14     11      11
    BANK0            80     40      78
    BANK1            80      0      34
    BANK3            96      0       0
    BANK2            96      0       0

Pointer List with Targets:

    strlen@s	PTR const unsigned char  size(1) Largest target is 16
		 -> w_Titulos@title(BANK0[16]), txt_temp(BANK1[9]), txt_cont(BANK1[9]), txt_pot(BANK0[5]), 
		 -> main@temp_string(BANK0[4]), main@cont_string(BANK0[4]), main@pot_string(BANK0[5]), 

    strlen@cp	PTR const unsigned char  size(1) Largest target is 16
		 -> w_Titulos@title(BANK0[16]), txt_temp(BANK1[9]), txt_cont(BANK1[9]), txt_pot(BANK0[5]), 
		 -> main@temp_string(BANK0[4]), main@cont_string(BANK0[4]), main@pot_string(BANK0[5]), 

    enviar_string@dato	PTR unsigned char  size(1) Largest target is 9
		 -> txt_temp(BANK1[9]), txt_cont(BANK1[9]), txt_pot(BANK0[5]), main@temp_string(BANK0[4]), 
		 -> main@cont_string(BANK0[4]), main@pot_string(BANK0[5]), 

    w_String@data	PTR unsigned char  size(1) Largest target is 16
		 -> w_Titulos@title(BANK0[16]), 

    divisor@unidad	PTR unsigned char  size(1) Largest target is 6
		 -> temp(BANK0[6]), cont(BANK0[6]), pot(BANK0[6]), 

    divisor@decena	PTR unsigned char  size(1) Largest target is 6
		 -> temp(BANK0[6]), cont(BANK0[6]), pot(BANK0[6]), 

    divisor@centena	PTR unsigned char  size(1) Largest target is 6
		 -> temp(BANK0[6]), cont(BANK0[6]), pot(BANK0[6]), 


Critical Paths under _main in COMMON

    _w_Titulos->_set_Cursor
    _w_Titulos->_w_String
    _w_String->_strlen
    _w_Char->_pulse_E
    _set_Cursor->_w_Instruction
    _map->___awdiv
    _ini_LCD->_w_Instruction
    _w_Instruction->_pulse_E
    _enviar_string->_strlen
    _divisor->___lwdiv
    ___awdiv->___wmul

Critical Paths under _isr in COMMON

    None.

Critical Paths under _main in BANK0

    _main->_w_Titulos
    _w_Titulos->_w_String
    _map->___awdiv
    _divisor->___awdiv

Critical Paths under _isr in BANK0

    None.

Critical Paths under _main in BANK1

    None.

Critical Paths under _isr in BANK1

    None.

Critical Paths under _main in BANK3

    None.

Critical Paths under _isr in BANK3

    None.

Critical Paths under _main in BANK2

    None.

Critical Paths under _isr in BANK2

    None.

Call Graph Tables:

 ---------------------------------------------------------------------------------
 (Depth) Function   	        Calls       Base Space   Used Autos Params    Refs
 ---------------------------------------------------------------------------------
 (0) _main                                                18    18      0    7211
                                             22 BANK0     18    18      0
                          _config_io
                       _config_reloj
                      _config_timer1
                          _config_tx
                            _divisor
                        _enviar_char
                      _enviar_string
                            _ini_LCD
                                _map
                         _set_Cursor
                         _spi_Master
                           _spi_Read
                             _w_Char
                          _w_Titulos
 ---------------------------------------------------------------------------------
 (1) _w_Titulos                                           20    20      0    1547
                                              2 BANK0     20    20      0
                         _set_Cursor
                             _w_Char
                           _w_String
 ---------------------------------------------------------------------------------
 (2) _w_String                                             4     4      0     301
                                              8 COMMON     2     2      0
                                              0 BANK0      2     2      0
                             _strlen
                             _w_Char
 ---------------------------------------------------------------------------------
 (3) _w_Char                                               1     1      0      22
                                              4 COMMON     1     1      0
                            _pulse_E
 ---------------------------------------------------------------------------------
 (2) _set_Cursor                                           5     4      1    1199
                                              5 COMMON     5     4      1
                      _w_Instruction
 ---------------------------------------------------------------------------------
 (1) _spi_Read                                             0     0      0       0
 ---------------------------------------------------------------------------------
 (1) _spi_Master                                           0     0      0       0
 ---------------------------------------------------------------------------------
 (1) _map                                                  7     5      2     893
                                              8 BANK0      7     5      2
                            ___awdiv
                             ___wmul
 ---------------------------------------------------------------------------------
 (2) ___wmul                                               6     2      4     244
                                              3 COMMON     6     2      4
 ---------------------------------------------------------------------------------
 (1) _ini_LCD                                              2     2      0      22
                                              5 COMMON     2     2      0
                      _w_Instruction
 ---------------------------------------------------------------------------------
 (3) _w_Instruction                                        1     1      0      22
                                              4 COMMON     1     1      0
                            _pulse_E
 ---------------------------------------------------------------------------------
 (4) _pulse_E                                              1     1      0       0
                                              3 COMMON     1     1      0
 ---------------------------------------------------------------------------------
 (1) _enviar_string                                        4     4      0     444
                                              8 COMMON     1     1      0
                                              0 BANK0      3     3      0
                             _strlen
 ---------------------------------------------------------------------------------
 (3) _strlen                                               5     3      2     156
                                              3 COMMON     5     3      2
 ---------------------------------------------------------------------------------
 (1) _enviar_char                                          2     2      0      22
                                              3 COMMON     2     2      0
 ---------------------------------------------------------------------------------
 (1) _divisor                                              9     4      5    2744
                                              8 BANK0      9     4      5
                            ___awdiv
                            ___awmod
                            ___lwdiv
                            ___lwmod
 ---------------------------------------------------------------------------------
 (2) ___lwmod                                              6     2      4     311
                                              3 COMMON     6     2      4
 ---------------------------------------------------------------------------------
 (2) ___lwdiv                                              8     4      4     314
                                              3 COMMON     8     4      4
 ---------------------------------------------------------------------------------
 (2) ___awmod                                              7     3      4     448
                                              3 COMMON     7     3      4
 ---------------------------------------------------------------------------------
 (2) ___awdiv                                              9     5      4     604
                                              9 COMMON     1     1      0
                                              0 BANK0      8     4      4
                             ___wmul (ARG)
 ---------------------------------------------------------------------------------
 (1) _config_tx                                            0     0      0       0
 ---------------------------------------------------------------------------------
 (1) _config_timer1                                        0     0      0       0
 ---------------------------------------------------------------------------------
 (1) _config_reloj                                         0     0      0       0
 ---------------------------------------------------------------------------------
 (1) _config_io                                            0     0      0       0
 ---------------------------------------------------------------------------------
 Estimated maximum stack depth 4
 ---------------------------------------------------------------------------------
 (Depth) Function   	        Calls       Base Space   Used Autos Params    Refs
 ---------------------------------------------------------------------------------
 (5) _isr                                                  3     3      0       0
                                              0 COMMON     3     3      0
 ---------------------------------------------------------------------------------
 Estimated maximum stack depth 5
 ---------------------------------------------------------------------------------

 Call Graph Graphs:

 _main (ROOT)
   _config_io
   _config_reloj
   _config_timer1
   _config_tx
   _divisor
     ___awdiv
       ___wmul (ARG)
     ___awmod
     ___lwdiv
     ___lwmod
   _enviar_char
   _enviar_string
     _strlen
   _ini_LCD
     _w_Instruction
       _pulse_E
   _map
     ___awdiv
     ___wmul
   _set_Cursor
     _w_Instruction
   _spi_Master
   _spi_Read
   _w_Char
     _pulse_E
   _w_Titulos
     _set_Cursor
     _w_Char
     _w_String
       _strlen
       _w_Char

 _isr (ROOT)

 Address spaces:
Name               Size   Autos  Total    Cost      Usage
BANK3               60      0       0       9        0.0%
BITBANK3            60      0       0       8        0.0%
SFR3                 0      0       0       4        0.0%
BITSFR3              0      0       0       4        0.0%
BANK2               60      0       0      11        0.0%
BITBANK2            60      0       0      10        0.0%
SFR2                 0      0       0       5        0.0%
BITSFR2              0      0       0       5        0.0%
BANK1               50      0      22       7       42.5%
BITBANK1            50      0       0       6        0.0%
SFR1                 0      0       0       2        0.0%
BITSFR1              0      0       0       2        0.0%
BANK0               50     28      4E       5       97.5%
BITBANK0            50      0       0       4        0.0%
SFR0                 0      0       0       1        0.0%
BITSFR0              0      0       0       1        0.0%
COMMON               E      B       B       1       78.6%
BITCOMMON            E      0       0       0        0.0%
CODE                 0      0       0       0        0.0%
DATA                 0      0      7B      12        0.0%
ABS                  0      0      7B       3        0.0%
NULL                 0      0       0       0        0.0%
STACK                0      0       0       2        0.0%
EEDATA             100      0       0       0        0.0%


Microchip Technology PIC Macro Assembler V2.32 build 20210201212658 
Symbol Table                                                                                   Thu Feb 17 04:52:15 2022

                       pc 0002               _SSPSTATbits 0094              ___awdiv@sign 0025  
                      fsr 0004       ___wmul@multiplicand 0075                       l110 05FF  
                     l113 06A1                       l122 03BD                       l202 0659  
                     l116 064C                       l141 0689                       l119 056A  
                     l135 0688                       l208 0510                       l160 0462  
                     l144 0692                       l163 0671                       l172 053D  
                     l180 02F6                       l157 067D                       l166 0665  
                     l175 05D0                       l460 0416                       l294 0577  
                     l199 063A                       l447 035F                       l296 058F  
                     l566 04A6                       l576 04E0                       l748 05E9  
                     u520 058B                       u521 058A                       u505 0578  
                     u610 0351                       u530 02FE                       u611 0350  
                     u531 02FD                       u515 057F                       u620 0356  
                     u540 0309                       u700 0408                       u460 05E3  
                     u621 0355                       u605 0345                       u541 0308  
                     u701 0407                       u461 05E2                       u550 031A  
                     u710 040D                       u630 03C3                       u551 0319  
                     u711 040C                       u631 03C2                       u640 03CE  
                     u720 046B                       u480 053D                       u641 03CD  
                     u721 046A                       u481 053C                       u570 032C  
                     u650 03D9                       u810 04BF                       u490 0571  
                     u571 032B                       u651 03D8                       u811 04BE  
                     u491 0570                       u475 05BA                       u740 047D  
                     u820 04C9                       u900 025C                       u565 031E  
                     u741 047C                       u821 04C8                       u805 04B1  
                     u485 0539                       u901 025B                       u590 033D  
                     u670 03EB                       u591 033C                       u671 03EA  
                     u735 046F                       u680 03F5                       u760 048E  
                     u840 04DC                       u585 032D                       u681 03F4  
                     u665 03DD                       u761 048D                       u841 04DB  
                     u825 04C5                       u850 0297                       u595 0339  
                     u755 047E                       u835 04D0                       u780 04A2  
                     u860 068F                       u685 03F1                       u781 04A1  
                     u765 048A                       u861 068E                       u917 0062  
                     u790 04AD                       u870 0510                       u695 03FC  
                     u775 0496                       u791 04AC                       u871 050F  
                     u927 007B                       u937 0089                       u890 020B  
                     u875 050C                       u947 0097                       u957 00B0  
                     u967 00BE                       u977 00CC                       u987 00E5  
                     u997 00F3                       _map 053E                       _isr 0600  
                     _pot 0063                       fsr0 0004                       indf 0000  
            ___awmod@sign 0079                      l1300 065B                      l1310 066A  
                    l1302 065E                      l1320 05DB                      l1312 066C  
                    l1304 0660                      l1410 03CA                      l1402 03BE  
                    l1322 05E3                      l1330 05C4                      l1420 03E3  
                    l1412 03CE                      l1404 03BF                      l1316 05D2  
                    l1308 0667                      l1332 05CA                      l1340 0522  
                    l1510 062C                      l1430 0402                      l1422 03E7  
                    l1414 03D3                      l1406 03C3                      l1318 05D7  
                    l1350 057E                      l1502 067E                      l1326 05B3  
                    l1342 0528                      l1520 0636                      l1512 062E  
                    l1360 02FA                      l1424 03EB                      l1416 03D9  
                    l1432 0408                      l1408 03C8                      l1440 0463  
                    l1600 038B                      l1352 0585                      l1344 056B  
                    l1504 0686                      l1328 05B7                      l1336 0514  
                    l1530 0647                      l1522 0639                      l1514 062F  
                    l1370 030E                      l1362 02FE                      l1434 040D  
                    l1426 03F5                      l1418 03DC                      l1450 0479  
                    l1442 0465                      l1602 03A4                      l1610 04EF  
                    l1354 058B                      l1346 056D                      l1338 0516  
                    l1532 0648                      l1516 0630                      l1508 0629  
                    l1380 0324                      l1372 0312                      l1364 0303  
                    l1436 0412                      l1428 03FB                      l1460 049C  
                    l1452 047D                      l1444 046B                      l1612 04F6  
                    l1292 0672                      l1540 041C                      l1348 0571  
                    l1700 0174                      l1534 064B                      l1526 063B  
                    l1518 0633                      l1390 0344                      l1382 0328  
                    l1374 0314                      l1366 0305                      l1358 02F7  
                    l1454 048E                      l1446 046E                      l1462 04A2  
                    l1470 04B0                      l1614 04FE                      l1606 04E4  
                    l1294 0675                      l1550 043E                      l1542 0425  
                    l1710 01AA                      l1702 0180                      l1630 0036  
                    l1528 0643                      l1392 034B                      l1384 032C  
                    l1376 031A                      l1368 0309                      l1456 0494  
                    l1448 0475                      l1480 04CF                      l1472 04B7  
                    l1616 064E                      l1608 04E7                      l1296 067A  
                    l1552 0444                      l1544 042B                      l1536 0417  
                    l1720 01DD                      l1712 01B3                      l1704 0189  
                    l1640 0054                      l1632 0040                      l1490 05EA  
                    l1386 033D                      l1378 031D                      l1394 0351  
                    l1458 0495                      l1482 04D6                      l1474 04BB  
                    l1466 04A7                      l1554 044D                      l1546 0433  
                    l1538 041B                      l1570 02BA                      l1562 028D  
                    l1730 0210                      l1722 01E9                      l1714 01BF  
                    l1706 0195                      l1650 0075                      l1642 0059  
                    l1634 0045                      l1492 05F3                      l1396 0356  
                    l1388 0343                      l1476 04BF                      l1468 04AD  
                    l1484 04DC                      l1556 0453                      l1548 0439  
                    l1580 02E4                      l1572 02C0                      l1564 02A4  
                    l1740 0226                      l1732 0217                      l1724 01F2  
                    l1716 01C8                      l1708 019E                      l1660 009C  
                    l1652 0080                      l1644 005C                      l1636 004A  
                    l1494 05F4                      l1398 035B                      l1478 04C9  
                    l1558 045C                      l1590 0541                      l1582 02F0  
                    l1574 02CC                      l1566 02AC                      l1750 023E  
                    l1742 022E                      l1734 021B                      l1726 01FE  
                    l1718 01D4                      l1670 00C3                      l1662 00A0  
                    l1654 0083                      l1646 0067                      l1638 004F  
                    l1496 05F5                      l1488 069B                      l1592 0566  
                    l1584 0689                      l1576 02D2                      l1568 02B2  
                    l1760 0256                      l1752 0246                      l1744 0233  
                    l1736 0220                      l1728 0207                      l1680 00EA  
                    l1672 00C6                      l1664 00AA                      l1656 008E  
                    l1648 006B                      l1498 05F6                      l1586 068F  
                    l1578 02DE                      l1762 025C                      l1754 024B  
                    l1746 0238                      l1738 0225                      l1690 0135  
                    l1682 00ED                      l1674 00D1                      l1666 00B5  
                    l1658 0091                      l1596 0360                      l1764 0280  
                    l1756 0250                      l1748 023D                      l1692 014F  
                    l1684 00F8                      l1676 00D5                      l1668 00B8  
                    l1598 0378                      l1766 0286                      l1758 0255  
                    l1694 0156                      l1686 0106                      l1678 00DF  
                    l1696 015F                      l1688 011B                      l1698 016B  
                    ?_map 0028                      ?_isr 0070                      u1007 0420  
                    u1017 042F                      u1027 043B                      u1037 0448  
                    u1047 0457                      u1057 0677                      u1067 04F1  
                    u1077 0654                      i1l92 060F                      _cont 005D  
                    _main 0036                      _temp 0057                      btemp 007E  
            ?_enviar_char 0070            ??_config_reloj 0073                      start 000C  
                   ??_map 002A                     ??_isr 0070                     ?_main 0070  
         __end_of___awdiv 0360           __end_of___awmod 0417    __size_of_enviar_string 0030  
                   _ANSEL 0188           ___awdiv@divisor 0020           __end_of___lwdiv 04A7  
         __end_of___lwmod 04E1           ___awdiv@counter 0024                     _TMR1H 000F  
                   _TMR1L 000E                     _SPBRG 0099                     _PORTA 0005  
                   _PORTB 0006                     _PORTC 0007                     _PORTD 0008  
                   _TRISA 0085                     _TRISB 0086                     _TRISC 0087  
                   _TRISD 0088                     u88_20 0606                     u88_21 0605  
                   _TXREG 0019           __end_of_ini_LCD 0463           __end_of_divisor 03BE  
                   pclath 000A           __end_of_pulse_E 067E                     status 0003  
         ??_config_timer1 0073                     wtemp0 007E           __initialization 000F  
            __end_of_main 028D                    ??_main 0036            w_Titulos@F1403 00A0  
        ___awdiv@dividend 0022                    _ANSELH 0189    __size_of_w_Instruction 000C  
            _bandera_UART 0055                    i1l1620 0600                    i1l1622 0606  
                  i1l1624 060A                    i1l1626 060C                    i1l1628 060E  
                  _SPBRGH 009A             _enviar_string 04E1                    _SSPBUF 0013  
          w_Titulos@title 0026                    ___wmul 056B                 ??___awdiv 0079  
               ??___awmod 0077                 ??___lwdiv 0077                 ??___lwmod 0077  
                  _w_Char 065A          ___awdiv@quotient 0026           ___awmod@divisor 0073  
         ___awmod@counter 0078          __end_of_w_String 053E                    map@res 002C  
                  map@num 002E                 ??_ini_LCD 0075                    _strlen 05D1  
               ??_divisor 002D          __end_of_spi_Read 0693      __end_of_config_reloj 06A2  
                  saved_w 007E                 ??_pulse_E 0073            ?_enviar_string 0070  
 __end_of__initialization 0032      __size_of_enviar_char 000D            __pcstackCOMMON 0070  
            __pidataBANK0 06A2              __pidataBANK1 0590             _w_Instruction 0666  
           divisor@decena 002B         enviar_string@dato 0022            enviar_string@i 0020  
           divisor@unidad 002C        __size_of_config_io 0016        __size_of_config_tx 0012  
              __pbssBANK0 0048        __size_of_w_Titulos 006A                __pmaintext 0036  
          ?_w_Instruction 0070                   ?___wmul 0073                __pintentry 0004  
                 ?_w_Char 0070                   ?_strlen 0073           ??_enviar_string 0078  
               ?_w_String 0070                 ?_spi_Read 0070         __end_of_config_io 0600  
       __end_of_config_tx 063B  w_Instruction@instruction 0074                   ___awdiv 02F7  
                 ___awmod 03BE           __size_of___wmul 0025                   ___lwdiv 0463  
                 ___lwmod 04A7           __size_of_w_Char 000C     __size_of_config_reloj 0007  
                 __ptext1 028D                   __ptext2 0511                   __ptext3 065A  
                 __ptext4 05B2                   __ptext5 0689                   __ptext6 067E  
                 __ptext7 053E                   __ptext8 056B                   __ptext9 0417  
                 _ini_LCD 0417                   _divisor 0360           __size_of_strlen 0019  
               _T1CONbits 0010              __size_of_map 002D              __size_of_isr 0016  
        ___awmod@dividend 0075         __end_of_w_Titulos 02F7                   _pulse_E 0672  
                 clrloop0 0694      end_of_initialization 0032                   _txt_pot 0069  
              _set_Cursor 05B2           enviar_char@dato 0074                ??_w_String 0078  
          main@pot_string 003B     __end_of_config_timer1 064D           ??_w_Instruction 0074  
            _config_reloj 069B                ??_spi_Read 0073                 _RCSTAbits 0018  
              _spi_Master 067E                   strlen@s 0077             set_Cursor@pos 0075  
               _PORTBbits 0006                 _PORTCbits 0007                 _TRISCbits 0087  
               _TXSTAbits 0098                w_Char@data 0074                divisor@aux 0030  
              divisor@num 0028            __end_of___wmul 0590               _BAUDCTLbits 0187  
          __end_of_w_Char 0666            __end_of_strlen 05EA       start_initialization 000F  
          divisor@centena 002A               __end_of_map 056B               __end_of_isr 0616  
            w_String@data 0020               ?_set_Cursor 0075             ??_enviar_char 0073  
                ??___wmul 0077               ?_spi_Master 0070                init_fetch0 0616  
             __pdataBANK0 0069               __pdataBANK1 00A0                  ??_w_Char 0074  
                ??_strlen 0075                 ___latbits 0002             __pcstackBANK0 0020  
        ___lwdiv@dividend 0075         __size_of_w_String 002D                  ?___awdiv 0020  
                ?___awmod 0073       __end_of_enviar_char 065A                  ?___lwdiv 0073  
                ?___lwmod 0073         __size_of_spi_Read 000A                 _config_io 05EA  
               _config_tx 0629                  ?_ini_LCD 0070       __size_of_set_Cursor 001F  
                ?_divisor 0028           main@cont_string 0040                  ?_pulse_E 0070  
        ___lwdiv@quotient 0078       __size_of_spi_Master 000B                 _w_Titulos 028D  
   __end_of_enviar_string 0511         interrupt_function 0004            ___wmul@product 0077  
               clear_ram0 0693                  _PIE1bits 008C                  _PIR1bits 000C  
               main@F1423 0048                 main@F1425 0051                 main@F1427 004D  
              ?_config_io 0070                ?_config_tx 0070         ___wmul@multiplier 0073  
              ?_w_Titulos 0070               _enviar_char 064D               _enviar_nada 0056  
   __end_of_w_Instruction 0672          __size_of___awdiv 0069          __size_of___awmod 0059  
        __size_of___lwdiv 0044          __size_of___lwmod 003A                 w_String@i 0021  
        __size_of_ini_LCD 004C          __size_of_divisor 005E    __size_of_config_timer1 0012  
         ___lwdiv@divisor 0073           ___lwdiv@counter 007A                  __ptext10 0666  
                __ptext11 0672                  __ptext20 0629                  __ptext12 04E1  
                __ptext21 063B                  __ptext13 05D1                  __ptext22 069B  
                __ptext14 064D                  __ptext23 05EA                  __ptext15 0360  
                __ptext24 0600                  __ptext16 04A7                  __ptext17 0463  
                __ptext18 03BE                  __ptext19 02F7          __size_of_pulse_E 000C  
            ??_set_Cursor 0076             __size_of_main 0257                  _w_String 0511  
                _spi_Read 0689              ??_spi_Master 0073               ??_config_io 0073  
             ??_config_tx 0073           main@temp_string 0044                  _txt_cont 00B9  
                _txt_temp 00B0        __end_of_set_Cursor 05D1                _INTCONbits 000B  
                init_ram0 061A                  intlevel1 0000               ??_w_Titulos 0022  
      __end_of_spi_Master 0689          ___lwmod@dividend 0075                _OSCCONbits 008F  
           _config_timer1 063B       set_Cursor@direction 0079           ___lwmod@divisor 0073  
                strlen@cp 0076           ___lwmod@counter 0078            set_Cursor@line 0078  
              _SSPCONbits 0014            ?_config_timer1 0070             ?_config_reloj 0070  
